TN:
SF:/home/bluebird/mock_project_app_music_video_player/final/media_player/PlayerMediaApp/src/Controller/ControllerManager.cpp
FN:3,_ZN17ControllerManagerC2E12ModelManager11ViewManagerSt10shared_ptrI11UARTManagerE
FN:10,_ZN17ControllerManager7getViewERKNSt7__cxx1112basic_stringIcSt11char_traitsIcESaIcEEE
FN:20,_ZN17ControllerManager9checkUartEv
FN:48,_ZN17ControllerManager8ScanDataEv
FN:65,_ZN17ControllerManager16mediaFileHandlerB5cxx11Ev
FN:105,_ZN17ControllerManager16mediaFileManagerEv
FN:132,_ZN17ControllerManager15playlistHandlerEv
FN:196,_ZN17ControllerManager15playlistManagerEv
FN:227,_ZN17ControllerManager16playMusicHandlerB5cxx11Ev
FN:250,_ZN17ControllerManager12playPlaylistB5cxx11Ev
FN:288,_ZN17ControllerManager16playVideoHandlerB5cxx11Ev
FN:311,_ZN17ControllerManager6runAppEv
FNDA:0,_ZN17ControllerManager16playVideoHandlerB5cxx11Ev
FNDA:0,_ZN17ControllerManager12playPlaylistB5cxx11Ev
FNDA:1,_ZN17ControllerManager16mediaFileManagerEv
FNDA:1,_ZN17ControllerManager8ScanDataEv
FNDA:0,_ZN17ControllerManager16playMusicHandlerB5cxx11Ev
FNDA:1,_ZN17ControllerManager9checkUartEv
FNDA:0,_ZN17ControllerManager15playlistHandlerEv
FNDA:1,_ZN17ControllerManager6runAppEv
FNDA:6,_ZN17ControllerManager7getViewERKNSt7__cxx1112basic_stringIcSt11char_traitsIcESaIcEEE
FNDA:0,_ZN17ControllerManager15playlistManagerEv
FNDA:129,_ZN17ControllerManagerC2E12ModelManager11ViewManagerSt10shared_ptrI11UARTManagerE
FNDA:0,_ZN17ControllerManager16mediaFileHandlerB5cxx11Ev
FNF:12
FNH:6
DA:3,129
DA:4,129
DA:5,129
DA:6,129
DA:7,129
DA:8,258
DA:10,6
DA:12,6
DA:13,6
DA:14,0
DA:15,0
DA:17,6
DA:18,0
DA:20,1
DA:22,2
DA:23,1
DA:24,1
DA:25,1
DA:27,1
DA:29,1
DA:30,1
DA:31,1
DA:32,1
DA:33,0
DA:35,1
DA:36,1
DA:37,0
DA:38,0
DA:40,1
DA:41,1
DA:44,1
DA:45,1
DA:48,1
DA:51,2
DA:53,1
DA:54,2
DA:56,1
DA:58,1
DA:59,1
DA:60,0
DA:61,0
DA:62,1
DA:65,0
DA:69,0
DA:70,0
DA:71,0
DA:73,0
DA:74,0
DA:76,0
DA:79,0
DA:81,0
DA:82,0
DA:85,0
DA:86,0
DA:87,0
DA:90,0
DA:91,0
DA:93,0
DA:94,0
DA:96,0
DA:97,0
DA:98,0
DA:99,0
DA:100,0
DA:105,1
DA:108,2
DA:110,1
DA:111,0
DA:113,0
DA:116,2
DA:117,2
DA:119,1
DA:120,2
DA:122,2
DA:124,1
DA:125,1
DA:126,0
DA:127,0
DA:128,1
DA:132,0
DA:135,0
DA:137,0
DA:138,0
DA:139,0
DA:141,0
DA:143,0
DA:146,0
DA:149,0
DA:150,0
DA:152,0
DA:153,0
DA:155,0
DA:158,0
DA:159,0
DA:161,0
DA:163,0
DA:164,0
DA:166,0
DA:167,0
DA:168,0
DA:169,0
DA:170,0
DA:172,0
DA:173,0
DA:175,0
DA:177,0
DA:178,0
DA:181,0
DA:183,0
DA:184,0
DA:186,0
DA:187,0
DA:189,0
DA:190,0
DA:191,0
DA:192,0
DA:196,0
DA:199,0
DA:200,0
DA:201,0
DA:203,0
DA:205,0
DA:208,0
DA:211,0
DA:212,0
DA:213,0
DA:214,0
DA:215,0
DA:217,0
DA:218,0
DA:220,0
DA:221,0
DA:222,0
DA:223,0
DA:227,0
DA:230,0
DA:231,0
DA:233,0
DA:234,0
DA:236,0
DA:237,0
DA:241,0
DA:243,0
DA:244,0
DA:245,0
DA:246,0
DA:250,0
DA:252,0
DA:253,0
DA:254,0
DA:255,0
DA:257,0
DA:259,0
DA:262,0
DA:265,0
DA:266,0
DA:267,0
DA:268,0
DA:269,0
DA:271,0
DA:272,0
DA:274,0
DA:276,0
DA:277,0
DA:280,0
DA:282,0
DA:283,0
DA:285,0
DA:286,0
DA:288,0
DA:291,0
DA:292,0
DA:294,0
DA:295,0
DA:297,0
DA:298,0
DA:302,0
DA:304,0
DA:305,0
DA:306,0
DA:307,0
DA:311,1
DA:313,2
DA:314,1
DA:315,0
DA:318,1
DA:320,2
DA:321,1
DA:323,1
DA:327,2
DA:328,0
DA:330,4
DA:331,2
DA:333,2
DA:334,0
DA:336,0
DA:337,0
DA:339,0
DA:340,0
DA:341,0
DA:343,0
DA:344,0
DA:346,0
DA:347,0
DA:348,1
DA:350,1
DA:351,0
DA:353,1
DA:354,1
DA:356,0
DA:358,0
DA:359,0
DA:361,0
DA:362,0
DA:364,0
DA:366,0
DA:367,0
DA:369,0
DA:370,0
DA:372,0
DA:374,0
DA:375,0
DA:376,0
DA:378,0
DA:379,0
DA:380,0
DA:382,0
DA:383,0
DA:384,0
DA:385,0
DA:386,0
DA:387,0
DA:389,0
DA:390,0
DA:391,0
DA:392,0
DA:393,0
DA:394,0
DA:396,0
DA:397,0
DA:398,0
DA:400,0
DA:401,0
DA:402,0
DA:404,0
DA:405,0
DA:406,0
DA:407,0
DA:408,0
DA:410,0
DA:411,0
DA:413,0
DA:415,0
DA:416,0
DA:417,0
DA:419,0
DA:420,0
DA:421,0
DA:423,0
DA:424,0
DA:425,0
DA:427,0
DA:428,0
DA:429,0
DA:430,0
DA:431,0
DA:432,0
DA:434,0
DA:435,0
DA:436,0
DA:437,0
DA:438,0
DA:439,1
DA:441,1
DA:442,0
DA:443,0
DA:445,1
DA:447,0
DA:448,0
DA:450,0
DA:451,0
DA:452,0
DA:453,1
DA:454,1
LF:284
LH:65
end_of_record
TN:
SF:/home/bluebird/mock_project_app_music_video_player/final/media_player/PlayerMediaApp/src/Controller/MediaFileController.cpp
FN:3,_ZN19MediaFileControllerC2ESt10shared_ptrI9MediaFileES0_I8BaseViewE
FN:6,_ZN19MediaFileController18getDetailMediaFileENSt7__cxx1112basic_stringIcSt11char_traitsIcESaIcEEE
FN:8,_ZN19MediaFileController11addMetadataB5cxx11Ev
FN:50,_ZN19MediaFileController12editMetadataB5cxx11Ev
FN:90,_ZN19MediaFileController14deleteMetadataB5cxx11Ev
FN:119,_ZN19MediaFileController16handlerMediaFileEv
FNDA:0,_ZN19MediaFileController14deleteMetadataB5cxx11Ev
FNDA:0,_ZN19MediaFileController12editMetadataB5cxx11Ev
FNDA:0,_ZN19MediaFileController18getDetailMediaFileENSt7__cxx1112basic_stringIcSt11char_traitsIcESaIcEEE
FNDA:0,_ZN19MediaFileControllerC2ESt10shared_ptrI9MediaFileES0_I8BaseViewE
FNDA:0,_ZN19MediaFileController16handlerMediaFileEv
FNDA:0,_ZN19MediaFileController11addMetadataB5cxx11Ev
FNF:6
FNH:0
DA:3,0
DA:4,0
DA:6,0
DA:8,0
DA:10,0
DA:11,0
DA:15,0
DA:17,0
DA:18,0
DA:21,0
DA:22,0
DA:25,0
DA:26,0
DA:27,0
DA:29,0
DA:30,0
DA:31,0
DA:35,0
DA:36,0
DA:38,0
DA:41,0
DA:42,0
DA:43,0
DA:44,0
DA:45,0
DA:46,0
DA:47,0
DA:48,0
DA:50,0
DA:52,0
DA:53,0
DA:57,0
DA:59,0
DA:60,0
DA:63,0
DA:64,0
DA:67,0
DA:68,0
DA:69,0
DA:71,0
DA:72,0
DA:73,0
DA:77,0
DA:78,0
DA:81,0
DA:83,0
DA:84,0
DA:85,0
DA:86,0
DA:87,0
DA:88,0
DA:90,0
DA:92,0
DA:97,0
DA:99,0
DA:100,0
DA:103,0
DA:104,0
DA:105,0
DA:107,0
DA:110,0
DA:112,0
DA:113,0
DA:114,0
DA:115,0
DA:116,0
DA:117,0
DA:119,0
DA:121,0
DA:125,0
DA:126,0
DA:127,0
DA:129,0
DA:130,0
DA:131,0
DA:132,0
DA:133,0
DA:134,0
DA:135,0
DA:136,0
DA:137,0
DA:138,0
DA:139,0
DA:140,0
DA:141,0
DA:143,0
DA:144,0
DA:145,0
DA:146,0
DA:147,0
DA:148,0
DA:149,0
LF:92
LH:0
end_of_record
TN:
SF:/home/bluebird/mock_project_app_music_video_player/final/media_player/PlayerMediaApp/src/Controller/MediaFileManagerController.cpp
FN:3,_ZN26MediaFileManagerControllerC2ER16MediaFileManagerSt10shared_ptrI8BaseViewES4_S2_I22MediaScannerControllerE
FN:10,_ZN26MediaFileManagerController22addMediaFileControllerENSt7__cxx1112basic_stringIcSt11char_traitsIcESaIcEEESt10shared_ptrI19MediaFileControllerE
FN:20,_ZN26MediaFileManagerController22getMediaFileControllerERKNSt7__cxx1112basic_stringIcSt11char_traitsIcESaIcEEE
FN:31,_ZN26MediaFileManagerController13addDataFolderERKSt13unordered_setINSt7__cxx1112basic_stringIcSt11char_traitsIcESaIcEEESt4hashIS6_ESt8equal_toIS6_ESaIS6_EE
FN:63,_ZN26MediaFileManagerController11addDataFileENSt7__cxx1112basic_stringIcSt11char_traitsIcESaIcEEE
FN:83,_ZN26MediaFileManagerController10deleteDataENSt7__cxx1112basic_stringIcSt11char_traitsIcESaIcEEE
FN:92,_ZN26MediaFileManagerController16showAllMediaFileB5cxx11Ev
FN:94,_ZN26MediaFileManagerController23showAllMediaFileOfAudioB5cxx11Ev
FN:96,_ZN26MediaFileManagerController23showAllMediaFileOfVideoB5cxx11Ev
FN:98,_ZN26MediaFileManagerController23handlerMediaFileManagerEv
FNDA:1,_ZN26MediaFileManagerController23handlerMediaFileManagerEv
FNDA:0,_ZN26MediaFileManagerController10deleteDataENSt7__cxx1112basic_stringIcSt11char_traitsIcESaIcEEE
FNDA:0,_ZN26MediaFileManagerController13addDataFolderERKSt13unordered_setINSt7__cxx1112basic_stringIcSt11char_traitsIcESaIcEEESt4hashIS6_ESt8equal_toIS6_ESaIS6_EE
FNDA:1,_ZN26MediaFileManagerControllerC2ER16MediaFileManagerSt10shared_ptrI8BaseViewES4_S2_I22MediaScannerControllerE
FNDA:0,_ZN26MediaFileManagerController22getMediaFileControllerERKNSt7__cxx1112basic_stringIcSt11char_traitsIcESaIcEEE
FNDA:0,_ZN26MediaFileManagerController16showAllMediaFileB5cxx11Ev
FNDA:0,_ZN26MediaFileManagerController11addDataFileENSt7__cxx1112basic_stringIcSt11char_traitsIcESaIcEEE
FNDA:0,_ZN26MediaFileManagerController23showAllMediaFileOfVideoB5cxx11Ev
FNDA:0,_ZN26MediaFileManagerController22addMediaFileControllerENSt7__cxx1112basic_stringIcSt11char_traitsIcESaIcEEESt10shared_ptrI19MediaFileControllerE
FNDA:0,_ZN26MediaFileManagerController23showAllMediaFileOfAudioB5cxx11Ev
FNF:10
FNH:2
DA:3,1
DA:6,1
DA:7,1
DA:8,1
DA:10,0
DA:14,0
DA:15,0
DA:17,0
DA:20,0
DA:23,0
DA:24,0
DA:25,0
DA:26,0
DA:28,0
DA:31,0
DA:34,0
DA:36,0
DA:39,0
DA:41,0
DA:43,0
DA:46,0
DA:47,0
DA:48,0
DA:50,0
DA:51,0
DA:52,0
DA:55,0
DA:57,0
DA:58,0
DA:59,0
DA:60,0
DA:61,0
DA:63,0
DA:65,0
DA:66,0
DA:70,0
DA:72,0
DA:74,0
DA:75,0
DA:76,0
DA:77,0
DA:79,0
DA:81,0
DA:83,0
DA:85,0
DA:86,0
DA:87,0
DA:89,0
DA:92,0
DA:94,0
DA:96,0
DA:98,1
DA:101,1
DA:102,1
DA:105,2
DA:106,2
DA:107,0
DA:108,0
DA:110,2
DA:111,0
DA:112,0
DA:115,2
DA:117,2
DA:118,0
DA:122,0
DA:123,0
DA:124,0
DA:125,0
DA:127,0
DA:128,0
DA:129,0
DA:130,0
DA:133,0
DA:134,0
DA:137,0
DA:138,0
DA:140,0
DA:141,0
DA:144,0
DA:145,0
DA:146,0
DA:148,0
DA:149,0
DA:151,0
DA:153,0
DA:154,0
DA:155,0
DA:156,0
DA:157,0
DA:159,1
DA:161,1
DA:162,1
DA:164,0
DA:167,0
DA:168,0
DA:169,0
DA:170,0
DA:172,0
DA:174,0
DA:175,0
DA:177,0
DA:178,0
DA:180,0
DA:182,0
DA:183,0
DA:184,0
DA:186,0
DA:188,0
DA:189,0
DA:190,0
DA:191,0
DA:193,0
DA:194,0
DA:197,0
DA:198,0
DA:199,0
DA:200,0
DA:201,0
DA:202,0
DA:203,0
DA:205,0
DA:206,0
DA:207,0
DA:208,0
DA:210,0
DA:211,0
DA:214,0
DA:215,0
DA:216,0
DA:217,0
DA:218,0
DA:219,0
DA:220,0
DA:222,0
DA:223,0
DA:224,0
DA:225,0
DA:227,0
DA:228,0
DA:231,0
DA:232,0
DA:233,0
DA:234,0
DA:235,0
DA:236,0
DA:237,1
DA:238,2
DA:239,0
DA:240,0
DA:242,0
DA:243,0
DA:244,0
DA:245,0
DA:246,0
DA:247,1
DA:248,1
LF:156
LH:19
end_of_record
TN:
SF:/home/bluebird/mock_project_app_music_video_player/final/media_player/PlayerMediaApp/src/Controller/MediaPlaylistController.cpp
FN:3,_ZN23MediaPlaylistControllerC2ER16MediaFileManagerR13FolderManagerSt10shared_ptrI8PlaylistES4_I8BaseViewES8_
FN:7,_ZN23MediaPlaylistController21getListPathMediaFilesB5cxx11Ev
FN:9,_ZN23MediaPlaylistController15setNamePlaylistENSt7__cxx1112basic_stringIcSt11char_traitsIcESaIcEEE
FN:11,_ZN23MediaPlaylistController22addMediaFileInPlaylistENSt7__cxx1112basic_stringIcSt11char_traitsIcESaIcEEE
FN:21,_ZN23MediaPlaylistController20addMediaFileByFolderEv
FN:80,_ZN23MediaPlaylistController25deleteMediaFileInPlaylistENSt7__cxx1112basic_stringIcSt11char_traitsIcESaIcEEE
FN:98,_ZN23MediaPlaylistController30displayAllMediaFilesInPlaylistEv
FN:100,_ZN23MediaPlaylistController31showMenuWithMediaListInPlaylistEv
FN:102,_ZN23MediaPlaylistController15handlerPlaylistEv
FNDA:0,_ZN23MediaPlaylistController21getListPathMediaFilesB5cxx11Ev
FNDA:0,_ZN23MediaPlaylistController15setNamePlaylistENSt7__cxx1112basic_stringIcSt11char_traitsIcESaIcEEE
FNDA:0,_ZN23MediaPlaylistController30displayAllMediaFilesInPlaylistEv
FNDA:0,_ZN23MediaPlaylistController25deleteMediaFileInPlaylistENSt7__cxx1112basic_stringIcSt11char_traitsIcESaIcEEE
FNDA:0,_ZN23MediaPlaylistController31showMenuWithMediaListInPlaylistEv
FNDA:0,_ZN23MediaPlaylistController20addMediaFileByFolderEv
FNDA:0,_ZN23MediaPlaylistController15handlerPlaylistEv
FNDA:0,_ZN23MediaPlaylistControllerC2ER16MediaFileManagerR13FolderManagerSt10shared_ptrI8PlaylistES4_I8BaseViewES8_
FNDA:0,_ZN23MediaPlaylistController22addMediaFileInPlaylistENSt7__cxx1112basic_stringIcSt11char_traitsIcESaIcEEE
FNF:9
FNH:0
DA:3,0
DA:4,0
DA:5,0
DA:7,0
DA:9,0
DA:11,0
DA:13,0
DA:14,0
DA:15,0
DA:17,0
DA:18,0
DA:19,0
DA:21,0
DA:23,0
DA:25,0
DA:26,0
DA:28,0
DA:29,0
DA:30,0
DA:32,0
DA:34,0
DA:35,0
DA:38,0
DA:39,0
DA:41,0
DA:42,0
DA:44,0
DA:45,0
DA:46,0
DA:49,0
DA:50,0
DA:53,0
DA:54,0
DA:55,0
DA:56,0
DA:57,0
DA:59,0
DA:60,0
DA:62,0
DA:63,0
DA:64,0
DA:67,0
DA:68,0
DA:71,0
DA:72,0
DA:73,0
DA:74,0
DA:76,0
DA:77,0
DA:80,0
DA:83,0
DA:85,0
DA:86,0
DA:89,0
DA:90,0
DA:91,0
DA:94,0
DA:98,0
DA:100,0
DA:102,0
DA:106,0
DA:107,0
DA:110,0
DA:113,0
DA:114,0
DA:115,0
DA:118,0
DA:119,0
DA:120,0
DA:123,0
DA:125,0
DA:126,0
DA:128,0
DA:130,0
DA:132,0
DA:133,0
DA:136,0
DA:138,0
DA:140,0
DA:142,0
DA:143,0
DA:144,0
DA:146,0
DA:147,0
DA:149,0
DA:151,0
DA:153,0
DA:155,0
DA:156,0
DA:157,0
DA:158,0
DA:160,0
DA:161,0
DA:163,0
DA:165,0
DA:166,0
DA:168,0
DA:169,0
DA:171,0
DA:172,0
DA:173,0
DA:175,0
DA:176,0
DA:177,0
DA:178,0
DA:179,0
DA:180,0
DA:181,0
DA:182,0
DA:184,0
DA:185,0
DA:186,0
DA:187,0
DA:188,0
DA:189,0
DA:190,0
LF:116
LH:0
end_of_record
TN:
SF:/home/bluebird/mock_project_app_music_video_player/final/media_player/PlayerMediaApp/src/Controller/MediaPlaylistManagerController.cpp
FN:2,_ZN30MediaPlaylistManagerControllerC2ER15PlaylistManagerR16MediaFileManagerR13FolderManagerSt10shared_ptrI8BaseViewES8_S8_
FN:6,_ZN30MediaPlaylistManagerController26addMediaPlaylistControllerENSt7__cxx1112basic_stringIcSt11char_traitsIcESaIcEEESt10shared_ptrI23MediaPlaylistControllerE
FN:14,_ZN30MediaPlaylistManagerController26getMediaPlaylistControllerERKNSt7__cxx1112basic_stringIcSt11char_traitsIcESaIcEEE
FN:24,_ZN30MediaPlaylistManagerController14createPlaylistENSt7__cxx1112basic_stringIcSt11char_traitsIcESaIcEEE
FN:32,_ZZN30MediaPlaylistManagerController14createPlaylistENSt7__cxx1112basic_stringIcSt11char_traitsIcESaIcEEEENKUlhE_clEh
FN:36,_ZZN30MediaPlaylistManagerController14createPlaylistENSt7__cxx1112basic_stringIcSt11char_traitsIcESaIcEEEENKUlhE0_clEh
FN:53,_ZN30MediaPlaylistManagerController14deletePlaylistENSt7__cxx1112basic_stringIcSt11char_traitsIcESaIcEEE
FN:69,_ZN30MediaPlaylistManagerController18displayAllPlaylistB5cxx11Ev
FN:71,_ZN30MediaPlaylistManagerController22handlerPlaylistManagerEv
FNDA:0,_ZN30MediaPlaylistManagerController22handlerPlaylistManagerEv
FNDA:0,_ZN30MediaPlaylistManagerController26addMediaPlaylistControllerENSt7__cxx1112basic_stringIcSt11char_traitsIcESaIcEEESt10shared_ptrI23MediaPlaylistControllerE
FNDA:0,_ZN30MediaPlaylistManagerController14createPlaylistENSt7__cxx1112basic_stringIcSt11char_traitsIcESaIcEEE
FNDA:0,_ZZN30MediaPlaylistManagerController14createPlaylistENSt7__cxx1112basic_stringIcSt11char_traitsIcESaIcEEEENKUlhE0_clEh
FNDA:0,_ZN30MediaPlaylistManagerController18displayAllPlaylistB5cxx11Ev
FNDA:0,_ZN30MediaPlaylistManagerController26getMediaPlaylistControllerERKNSt7__cxx1112basic_stringIcSt11char_traitsIcESaIcEEE
FNDA:0,_ZN30MediaPlaylistManagerControllerC2ER15PlaylistManagerR16MediaFileManagerR13FolderManagerSt10shared_ptrI8BaseViewES8_S8_
FNDA:0,_ZZN30MediaPlaylistManagerController14createPlaylistENSt7__cxx1112basic_stringIcSt11char_traitsIcESaIcEEEENKUlhE_clEh
FNDA:0,_ZN30MediaPlaylistManagerController14deletePlaylistENSt7__cxx1112basic_stringIcSt11char_traitsIcESaIcEEE
FNF:9
FNH:0
DA:2,0
DA:3,0
DA:4,0
DA:6,0
DA:8,0
DA:9,0
DA:11,0
DA:12,0
DA:14,0
DA:16,0
DA:17,0
DA:18,0
DA:19,0
DA:21,0
DA:24,0
DA:28,0
DA:29,0
DA:32,0
DA:33,0
DA:36,0
DA:37,0
DA:39,0
DA:42,0
DA:43,0
DA:46,0
DA:47,0
DA:48,0
DA:49,0
DA:50,0
DA:53,0
DA:55,0
DA:57,0
DA:58,0
DA:61,0
DA:62,0
DA:63,0
DA:65,0
DA:69,0
DA:71,0
DA:75,0
DA:76,0
DA:79,0
DA:82,0
DA:83,0
DA:84,0
DA:87,0
DA:88,0
DA:89,0
DA:92,0
DA:94,0
DA:95,0
DA:97,0
DA:98,0
DA:99,0
DA:100,0
DA:102,0
DA:103,0
DA:105,0
DA:108,0
DA:109,0
DA:110,0
DA:113,0
DA:114,0
DA:115,0
DA:116,0
DA:118,0
DA:119,0
DA:121,0
DA:123,0
DA:124,0
DA:125,0
DA:127,0
DA:129,0
DA:130,0
DA:131,0
DA:132,0
DA:134,0
DA:135,0
DA:136,0
DA:137,0
DA:138,0
DA:139,0
DA:140,0
DA:141,0
DA:142,0
DA:143,0
DA:144,0
DA:146,0
DA:147,0
DA:148,0
DA:149,0
DA:150,0
DA:151,0
DA:152,0
LF:94
LH:0
end_of_record
TN:
SF:/home/bluebird/mock_project_app_music_video_player/final/media_player/PlayerMediaApp/src/Controller/MediaScannerController.cpp
FN:3,_ZN22MediaScannerControllerC2ER16MediaFileManagerR15PlaylistManagerR13FolderManagerSt10shared_ptrI8BaseViewE
FN:7,_ZN22MediaScannerController13has_extensionERKNSt7__cxx1112basic_stringIcSt11char_traitsIcESaIcEEES7_
FN:19,_ZN22MediaScannerController12list_foldersERKNSt7__cxx1112basic_stringIcSt11char_traitsIcESaIcEEE
FN:41,_ZN22MediaScannerController16list_media_filesERKNSt7__cxx1112basic_stringIcSt11char_traitsIcESaIcEEE
FN:67,_ZN22MediaScannerController10fileExistsERKNSt7__cxx1112basic_stringIcSt11char_traitsIcESaIcEEE
FN:71,_ZN22MediaScannerController21addDataFileWithFolderENSt7__cxx1112basic_stringIcSt11char_traitsIcESaIcEEES5_
FN:103,_ZN22MediaScannerController8loadDataEv
FN:146,_ZN22MediaScannerController10loadFolderEv
FN:190,_ZN22MediaScannerController17loadMediaPlaylistEv
FN:229,_ZN22MediaScannerController12getListPathsB5cxx11Ev
FN:235,_ZN22MediaScannerController17scanHomeDirectoryEv
FN:292,_ZN22MediaScannerController14scanUSBDevicesEv
FN:353,_ZN22MediaScannerController20checkFolderDirectoryEv
FN:355,_ZN22MediaScannerController14checkFolderUSBEv
FN:357,_ZN22MediaScannerController10scanFolderERKNSt7__cxx1112basic_stringIcSt11char_traitsIcESaIcEEE
FN:369,_ZN22MediaScannerController10handleScanEb
FNDA:2,_ZN22MediaScannerController14checkFolderUSBEv
FNDA:1,_ZN22MediaScannerController17loadMediaPlaylistEv
FNDA:4,_ZN22MediaScannerController12getListPathsB5cxx11Ev
FNDA:6,_ZN22MediaScannerController10handleScanEb
FNDA:3,_ZN22MediaScannerController10scanFolderERKNSt7__cxx1112basic_stringIcSt11char_traitsIcESaIcEEE
FNDA:5,_ZN22MediaScannerController10fileExistsERKNSt7__cxx1112basic_stringIcSt11char_traitsIcESaIcEEE
FNDA:1,_ZN22MediaScannerController10loadFolderEv
FNDA:2,_ZN22MediaScannerController17scanHomeDirectoryEv
FNDA:1,_ZN22MediaScannerController8loadDataEv
FNDA:36,_ZN22MediaScannerController13has_extensionERKNSt7__cxx1112basic_stringIcSt11char_traitsIcESaIcEEES7_
FNDA:6,_ZN22MediaScannerController21addDataFileWithFolderENSt7__cxx1112basic_stringIcSt11char_traitsIcESaIcEEES5_
FNDA:2,_ZN22MediaScannerController14scanUSBDevicesEv
FNDA:2,_ZN22MediaScannerController20checkFolderDirectoryEv
FNDA:7,_ZN22MediaScannerController12list_foldersERKNSt7__cxx1112basic_stringIcSt11char_traitsIcESaIcEEE
FNDA:7,_ZN22MediaScannerController16list_media_filesERKNSt7__cxx1112basic_stringIcSt11char_traitsIcESaIcEEE
FNDA:64,_ZN22MediaScannerControllerC2ER16MediaFileManagerR15PlaylistManagerR13FolderManagerSt10shared_ptrI8BaseViewE
FNF:16
FNH:16
DA:3,64
DA:4,64
DA:5,64
DA:7,36
DA:9,36
DA:10,3
DA:13,33
DA:14,33
DA:16,0
DA:19,7
DA:21,7
DA:22,7
DA:23,7
DA:24,0
DA:28,196
DA:29,189
DA:30,175
DA:32,175
DA:33,117
DA:35,175
DA:37,7
DA:38,7
DA:39,0
DA:41,7
DA:43,7
DA:44,7
DA:45,7
DA:46,0
DA:50,41
DA:51,34
DA:52,20
DA:54,20
DA:55,20
DA:56,20
DA:57,20
DA:59,20
DA:60,20
DA:62,7
DA:63,7
DA:64,0
DA:67,5
DA:68,5
DA:69,5
DA:71,6
DA:73,6
DA:75,6
DA:76,3
DA:77,3
DA:78,3
DA:81,18
DA:83,12
DA:84,12
DA:86,12
DA:87,12
DA:89,12
DA:90,4
DA:91,4
DA:93,8
DA:94,8
DA:95,8
DA:98,0
DA:100,12
DA:101,6
DA:103,1
DA:105,1
DA:106,1
DA:108,1
DA:109,1
DA:110,3
DA:111,2
DA:112,2
DA:113,2
DA:115,0
DA:118,1
DA:119,1
DA:121,1
DA:122,1
DA:123,1
DA:125,1
DA:126,1
DA:128,1
DA:129,1
DA:130,3
DA:131,2
DA:132,2
DA:133,2
DA:135,0
DA:138,1
DA:139,1
DA:141,1
DA:142,1
DA:143,1
DA:144,1
DA:146,1
DA:149,1
DA:150,1
DA:151,0
DA:154,1
DA:155,2
DA:156,1
DA:157,0
DA:159,1
DA:161,1
DA:162,1
DA:164,1
DA:165,1
DA:168,1
DA:169,1
DA:170,0
DA:173,2
DA:174,1
DA:175,0
DA:178,1
DA:179,1
DA:180,1
DA:182,1
DA:183,1
DA:185,1
DA:186,0
DA:187,0
DA:188,1
DA:190,1
DA:192,1
DA:194,1
DA:195,0
DA:196,0
DA:199,1
DA:201,4
DA:202,1
DA:203,1
DA:204,1
DA:206,1
DA:208,1
DA:209,1
DA:210,1
DA:211,4
DA:212,9
DA:213,6
DA:214,0
DA:215,0
DA:219,1
DA:220,1
DA:221,0
DA:224,1
DA:225,1
DA:226,1
DA:227,1
DA:229,4
DA:230,4
DA:231,0
DA:233,4
DA:235,2
DA:239,2
DA:240,2
DA:242,2
DA:244,2
DA:245,0
DA:248,2
DA:249,2
DA:250,2
DA:252,2
DA:253,0
DA:256,2
DA:257,2
DA:258,2
DA:259,0
DA:261,2
DA:262,2
DA:263,2
DA:264,6
DA:265,4
DA:267,2
DA:268,1
DA:270,1
DA:273,6
DA:274,4
DA:275,4
DA:278,2
DA:279,0
DA:281,2
DA:282,2
DA:283,2
DA:285,2
DA:286,0
DA:287,0
DA:288,0
DA:289,0
DA:292,2
DA:294,2
DA:298,4
DA:299,2
DA:300,2
DA:301,8
DA:302,6
DA:305,2
DA:306,0
DA:309,2
DA:310,2
DA:311,0
DA:313,2
DA:314,2
DA:315,2
DA:316,8
DA:317,6
DA:319,2
DA:320,0
DA:323,2
DA:324,2
DA:325,0
DA:327,2
DA:329,2
DA:331,2
DA:332,1
DA:334,1
DA:337,6
DA:338,4
DA:339,4
DA:342,2
DA:343,0
DA:345,2
DA:346,2
DA:348,2
DA:349,0
DA:350,0
DA:353,2
DA:355,2
DA:357,3
DA:359,3
DA:360,3
DA:361,3
DA:363,15
DA:364,12
DA:366,6
DA:367,3
DA:369,6
DA:373,6
DA:377,7
DA:378,7
DA:379,7
DA:381,7
DA:382,1
DA:383,1
DA:384,1
DA:385,1
DA:386,1
DA:387,1
DA:388,4
DA:389,4
DA:390,1
DA:391,1
DA:393,1
DA:394,1
DA:395,1
DA:396,3
DA:398,2
DA:399,2
DA:400,2
DA:402,0
DA:403,0
DA:404,0
LF:260
LH:222
end_of_record
TN:
SF:/home/bluebird/mock_project_app_music_video_player/final/media_player/PlayerMediaApp/src/Controller/PlayerController.cpp
FN:20,_ZN16PlayerControllerC2ERKSt6vectorINSt7__cxx1112basic_stringIcSt11char_traitsIcESaIcEEESaIS6_EE
FN:27,_ZN16PlayerControllerD2Ev
FN:34,_ZN16PlayerController23setNotificationsEnabledEb
FN:36,_ZN16PlayerController16addObserverIndexESt8functionIFviEE
FN:39,_ZN16PlayerController20notifyObserversIndexEv
FN:47,_ZN16PlayerController15getCurrentIndexEv
FN:54,_ZN16PlayerController16addObserverStateESt8functionIFvvEE
FN:55,_ZN16PlayerController20notifyObserversStateEv
FN:63,_ZN16PlayerController17addObserverVolumeESt8functionIFvvEE
FN:65,_ZN16PlayerController21notifyObserversVolumeEv
FN:73,_ZN16PlayerController19addObserverDurationESt8functionIFviEE
FN:76,_ZN16PlayerController23notifyObserversDurationEv
FN:82,_ZN16PlayerController13getMediaFilesB5cxx11Ev
FN:85,_ZN16PlayerController13startDurationEv
FN:89,_ZZN16PlayerController13startDurationEvENKUlvE_clEv
FN:100,_ZN16PlayerController12stopDurationEv
FN:108,_ZN16PlayerController13resetDurationEv
FN:114,_ZN16PlayerController11getDurationEv
FN:116,_ZN16PlayerController9setVolumeEi
FN:125,_ZN16PlayerController14increaseVolumeEi
FN:127,_ZN16PlayerController14decreaseVolumeEi
FN:129,_ZNK16PlayerController9getVolumeEv
FN:131,_ZN16PlayerController8isRepeatEv
FN:133,_ZN16PlayerController4playEv
FN:150,_ZN16PlayerController9isPlayingEv
FN:156,_ZN16PlayerController5pauseEv
FN:169,_ZN16PlayerController7isPauseEv
FN:175,_ZN16PlayerController6resumeEv
FN:186,_ZN16PlayerController14togglePlaybackEv
FN:207,_ZN16PlayerController12toggleRepeatEv
FN:213,_ZN16PlayerController4stopEv
FN:228,_ZN16PlayerController8playNextEv
FN:239,_ZN16PlayerController12playPreviousEv
FN:250,_ZN16PlayerController18stopPlaybackThreadEv
FN:261,_ZN16PlayerController14playbackWorkerERKNSt7__cxx1112basic_stringIcSt11char_traitsIcESaIcEEE
FN:299,_ZN16PlayerController21musicFinishedCallbackEv
FN:388,_ZN16PlayerController9playAudioEPKc
FN:424,_Z13audioCallbackPvPhi
FN:512,_ZN16PlayerController9playVideoEPKc
FNDA:0,_Z13audioCallbackPvPhi
FNDA:148,_ZN16PlayerController12stopDurationEv
FNDA:0,_ZNK16PlayerController9getVolumeEv
FNDA:0,_ZN16PlayerController16addObserverIndexESt8functionIFviEE
FNDA:0,_ZN16PlayerController15getCurrentIndexEv
FNDA:0,_ZN16PlayerController9isPlayingEv
FNDA:0,_ZN16PlayerController11getDurationEv
FNDA:0,_ZN16PlayerController5pauseEv
FNDA:0,_ZN16PlayerController14playbackWorkerERKNSt7__cxx1112basic_stringIcSt11char_traitsIcESaIcEEE
FNDA:0,_ZN16PlayerController4stopEv
FNDA:0,_ZN16PlayerController13startDurationEv
FNDA:0,_ZN16PlayerController6resumeEv
FNDA:0,_ZN16PlayerController8isRepeatEv
FNDA:0,_ZN16PlayerController23setNotificationsEnabledEb
FNDA:0,_ZN16PlayerController19addObserverDurationESt8functionIFviEE
FNDA:0,_ZN16PlayerController14togglePlaybackEv
FNDA:0,_ZN16PlayerController21musicFinishedCallbackEv
FNDA:0,_ZN16PlayerController21notifyObserversVolumeEv
FNDA:0,_ZN16PlayerController13resetDurationEv
FNDA:0,_ZN16PlayerController7isPauseEv
FNDA:0,_ZN16PlayerController12playPreviousEv
FNDA:0,_ZN16PlayerController9setVolumeEi
FNDA:148,_ZN16PlayerController18stopPlaybackThreadEv
FNDA:0,_ZN16PlayerController14increaseVolumeEi
FNDA:0,_ZN16PlayerController20notifyObserversIndexEv
FNDA:0,_ZN16PlayerController9playVideoEPKc
FNDA:0,_ZZN16PlayerController13startDurationEvENKUlvE_clEv
FNDA:0,_ZN16PlayerController13getMediaFilesB5cxx11Ev
FNDA:0,_ZN16PlayerController12toggleRepeatEv
FNDA:0,_ZN16PlayerController9playAudioEPKc
FNDA:0,_ZN16PlayerController20notifyObserversStateEv
FNDA:0,_ZN16PlayerController8playNextEv
FNDA:0,_ZN16PlayerController4playEv
FNDA:148,_ZN16PlayerControllerC2ERKSt6vectorINSt7__cxx1112basic_stringIcSt11char_traitsIcESaIcEEESaIS6_EE
FNDA:0,_ZN16PlayerController17addObserverVolumeESt8functionIFvvEE
FNDA:148,_ZN16PlayerControllerD2Ev
FNDA:0,_ZN16PlayerController23notifyObserversDurationEv
FNDA:0,_ZN16PlayerController16addObserverStateESt8functionIFvvEE
FNDA:0,_ZN16PlayerController14decreaseVolumeEi
FNF:39
FNH:4
DA:20,148
DA:21,148
DA:22,296
DA:24,148
DA:25,148
DA:27,148
DA:29,148
DA:30,148
DA:31,148
DA:32,148
DA:34,0
DA:36,0
DA:37,0
DA:39,0
DA:41,0
DA:42,0
DA:43,0
DA:47,0
DA:49,0
DA:50,0
DA:51,0
DA:54,0
DA:55,0
DA:57,0
DA:58,0
DA:59,0
DA:63,0
DA:65,0
DA:67,0
DA:68,0
DA:69,0
DA:73,0
DA:76,0
DA:77,0
DA:78,0
DA:79,0
DA:82,0
DA:83,0
DA:85,0
DA:87,0
DA:88,0
DA:89,0
DA:90,0
DA:91,0
DA:92,0
DA:93,0
DA:94,0
DA:97,0
DA:98,0
DA:100,148
DA:102,148
DA:103,148
DA:104,0
DA:106,148
DA:108,0
DA:110,0
DA:111,0
DA:112,0
DA:114,0
DA:116,0
DA:118,0
DA:119,0
DA:120,0
DA:121,0
DA:122,0
DA:123,0
DA:125,0
DA:127,0
DA:129,0
DA:131,0
DA:133,0
DA:136,0
DA:137,0
DA:138,0
DA:141,0
DA:142,0
DA:143,0
DA:144,0
DA:145,0
DA:146,0
DA:147,0
DA:150,0
DA:151,0
DA:152,0
DA:153,0
DA:156,0
DA:158,0
DA:159,0
DA:160,0
DA:161,0
DA:163,0
DA:164,0
DA:165,0
DA:167,0
DA:169,0
DA:171,0
DA:172,0
DA:173,0
DA:175,0
DA:176,0
DA:177,0
DA:178,0
DA:179,0
DA:181,0
DA:182,0
DA:183,0
DA:184,0
DA:186,0
DA:187,0
DA:188,0
DA:189,0
DA:190,0
DA:192,0
DA:193,0
DA:196,0
DA:197,0
DA:201,0
DA:202,0
DA:204,0
DA:205,0
DA:207,0
DA:208,0
DA:209,0
DA:210,0
DA:213,0
DA:214,0
DA:215,0
DA:216,0
DA:218,0
DA:219,0
DA:220,0
DA:221,0
DA:222,0
DA:223,0
DA:224,0
DA:225,0
DA:228,0
DA:230,0
DA:232,0
DA:233,0
DA:234,0
DA:235,0
DA:236,0
DA:237,0
DA:239,0
DA:241,0
DA:243,0
DA:244,0
DA:245,0
DA:246,0
DA:247,0
DA:248,0
DA:250,148
DA:252,148
DA:254,0
DA:255,0
DA:256,0
DA:257,0
DA:259,148
DA:261,0
DA:265,0
DA:266,0
DA:267,0
DA:269,0
DA:270,0
DA:271,0
DA:272,0
DA:274,0
DA:275,0
DA:276,0
DA:277,0
DA:279,0
DA:280,0
DA:283,0
DA:284,0
DA:285,0
DA:286,0
DA:287,0
DA:288,0
DA:290,0
DA:291,0
DA:292,0
DA:293,0
DA:294,0
DA:295,0
DA:299,0
DA:302,0
DA:304,0
DA:306,0
DA:308,0
DA:309,0
DA:310,0
DA:315,0
DA:317,0
DA:319,0
DA:324,0
DA:326,0
DA:327,0
DA:329,0
DA:330,0
DA:331,0
DA:335,0
DA:336,0
DA:337,0
DA:338,0
DA:344,0
DA:345,0
DA:346,0
DA:348,0
DA:352,0
DA:354,0
DA:356,0
DA:360,0
DA:366,0
DA:368,0
DA:370,0
DA:372,0
DA:374,0
DA:378,0
DA:382,0
DA:388,0
DA:390,0
DA:391,0
DA:394,0
DA:395,0
DA:396,0
DA:397,0
DA:400,0
DA:401,0
DA:403,0
DA:404,0
DA:406,0
DA:408,0
DA:409,0
DA:410,0
DA:411,0
DA:413,0
DA:414,0
DA:416,0
DA:419,0
DA:420,0
DA:421,0
DA:424,0
DA:425,0
DA:426,0
DA:427,0
DA:433,0
DA:434,0
DA:436,0
DA:437,0
DA:438,0
DA:440,0
DA:441,0
DA:442,0
DA:443,0
DA:444,0
DA:445,0
DA:447,0
DA:448,0
DA:449,0
DA:450,0
DA:451,0
DA:452,0
DA:454,0
DA:455,0
DA:456,0
DA:457,0
DA:458,0
DA:462,0
DA:465,0
DA:466,0
DA:467,0
DA:468,0
DA:469,0
DA:470,0
DA:474,0
DA:475,0
DA:476,0
DA:477,0
DA:479,0
DA:480,0
DA:481,0
DA:482,0
DA:486,0
DA:487,0
DA:489,0
DA:491,0
DA:492,0
DA:496,0
DA:497,0
DA:502,0
DA:503,0
DA:504,0
DA:506,0
DA:507,0
DA:508,0
DA:512,0
DA:513,0
DA:514,0
DA:516,0
DA:517,0
DA:518,0
DA:521,0
DA:522,0
DA:523,0
DA:524,0
DA:527,0
DA:528,0
DA:529,0
DA:530,0
DA:531,0
DA:533,0
DA:534,0
DA:538,0
DA:539,0
DA:540,0
DA:541,0
DA:545,0
DA:546,0
DA:547,0
DA:548,0
DA:549,0
DA:550,0
DA:553,0
DA:554,0
DA:555,0
DA:556,0
DA:557,0
DA:558,0
DA:559,0
DA:563,0
DA:564,0
DA:565,0
DA:566,0
DA:567,0
DA:568,0
DA:571,0
DA:572,0
DA:573,0
DA:574,0
DA:575,0
DA:580,0
DA:581,0
DA:582,0
DA:583,0
DA:585,0
DA:586,0
DA:591,0
DA:592,0
DA:593,0
DA:594,0
DA:595,0
DA:596,0
DA:597,0
DA:599,0
DA:600,0
DA:601,0
DA:602,0
DA:603,0
DA:605,0
DA:606,0
DA:610,0
DA:611,0
DA:614,0
DA:616,0
DA:617,0
DA:620,0
DA:624,0
DA:625,0
DA:626,0
DA:627,0
DA:628,0
DA:632,0
DA:635,0
DA:637,0
DA:638,0
DA:639,0
DA:640,0
DA:641,0
DA:642,0
DA:644,0
DA:645,0
DA:646,0
DA:647,0
DA:649,0
DA:650,0
DA:651,0
DA:652,0
DA:653,0
DA:654,0
DA:658,0
DA:659,0
DA:660,0
DA:663,0
DA:667,0
DA:668,0
DA:669,0
DA:675,0
DA:676,0
DA:677,0
DA:678,0
DA:679,0
DA:682,0
DA:683,0
DA:684,0
DA:687,0
DA:688,0
DA:689,0
DA:691,0
DA:695,0
DA:697,0
DA:698,0
DA:699,0
DA:702,0
DA:703,0
DA:704,0
DA:705,0
DA:707,0
DA:711,0
DA:712,0
DA:713,0
DA:714,0
DA:716,0
DA:721,0
DA:722,0
DA:723,0
DA:724,0
DA:726,0
DA:728,0
DA:729,0
DA:730,0
DA:731,0
DA:732,0
DA:733,0
DA:734,0
DA:735,0
DA:736,0
DA:737,0
DA:738,0
DA:739,0
DA:741,0
LF:441
LH:17
end_of_record
TN:
SF:/home/bluebird/mock_project_app_music_video_player/final/media_player/PlayerMediaApp/src/utils/UARTSetup.cpp
FN:3,_ZN11UARTManagerC2Ev
FN:5,_ZN11UARTManagerD2Ev
FN:7,_ZN11UARTManager8stopUARTEv
FN:23,_ZN11UARTManager19checkPortConnectionERKNSt7__cxx1112basic_stringIcSt11char_traitsIcESaIcEEEj
FN:46,_ZN11UARTManager11getPortListB5cxx11Ev
FN:59,_ZN11UARTManager18getBaudRateOptionsB5cxx11Ev
FN:66,_ZN11UARTManager15asyncHandleUartERN5boost4asio17basic_serial_portINS1_9execution12any_executorIJNS3_12context_as_tIRNS1_17execution_contextEEENS3_6detail8blocking7never_tILi0EEENS3_11prefer_onlyINSA_10possibly_tILi0EEEEENSD_INS9_16outstanding_work9tracked_tILi0EEEEENSD_INSH_11untracked_tILi0EEEEENSD_INS9_12relationship6fork_tILi0EEEEENSD_INSO_14continuation_tILi0EEEEEEEEEERSt10shared_ptrI16PlayerControllerE
FN:70,_ZZN11UARTManager15asyncHandleUartERN5boost4asio17basic_serial_portINS1_9execution12any_executorIJNS3_12context_as_tIRNS1_17execution_contextEEENS3_6detail8blocking7never_tILi0EEENS3_11prefer_onlyINSA_10possibly_tILi0EEEEENSD_INS9_16outstanding_work9tracked_tILi0EEEEENSD_INSH_11untracked_tILi0EEEEENSD_INS9_12relationship6fork_tILi0EEEEENSD_INSO_14continuation_tILi0EEEEEEEEEERSt10shared_ptrI16PlayerControllerEENKUlRKNS0_6system10error_codeEmE_clES15_m
FN:127,_ZN11UARTManager12runMediaUartERSt10shared_ptrI16PlayerControllerE
FN:131,_ZZN11UARTManager12runMediaUartERSt10shared_ptrI16PlayerControllerEENKUlvE_clEv
FNDA:150,_ZN11UARTManager18getBaudRateOptionsB5cxx11Ev
FNDA:1,_ZN11UARTManager11getPortListB5cxx11Ev
FNDA:103674,_ZZN11UARTManager15asyncHandleUartERN5boost4asio17basic_serial_portINS1_9execution12any_executorIJNS3_12context_as_tIRNS1_17execution_contextEEENS3_6detail8blocking7never_tILi0EEENS3_11prefer_onlyINSA_10possibly_tILi0EEEEENSD_INS9_16outstanding_work9tracked_tILi0EEEEENSD_INSH_11untracked_tILi0EEEEENSD_INS9_12relationship6fork_tILi0EEEEENSD_INSO_14continuation_tILi0EEEEEEEEEERSt10shared_ptrI16PlayerControllerEENKUlRKNS0_6system10error_codeEmE_clES15_m
FNDA:1342,_ZN11UARTManagerD2Ev
FNDA:103722,_ZN11UARTManager15asyncHandleUartERN5boost4asio17basic_serial_portINS1_9execution12any_executorIJNS3_12context_as_tIRNS1_17execution_contextEEENS3_6detail8blocking7never_tILi0EEENS3_11prefer_onlyINSA_10possibly_tILi0EEEEENSD_INS9_16outstanding_work9tracked_tILi0EEEEENSD_INSH_11untracked_tILi0EEEEENSD_INS9_12relationship6fork_tILi0EEEEENSD_INSO_14continuation_tILi0EEEEEEEEEERSt10shared_ptrI16PlayerControllerE
FNDA:1491,_ZN11UARTManager8stopUARTEv
FNDA:150,_ZN11UARTManager19checkPortConnectionERKNSt7__cxx1112basic_stringIcSt11char_traitsIcESaIcEEEj
FNDA:150,_ZN11UARTManager12runMediaUartERSt10shared_ptrI16PlayerControllerE
FNDA:1342,_ZN11UARTManagerC2Ev
FNDA:150,_ZZN11UARTManager12runMediaUartERSt10shared_ptrI16PlayerControllerEENKUlvE_clEv
FNF:10
FNH:10
DA:3,1342
DA:5,1342
DA:7,1491
DA:9,1491
DA:10,150
DA:12,1491
DA:13,1491
DA:14,0
DA:16,1491
DA:17,0
DA:18,0
DA:19,0
DA:20,1491
DA:23,150
DA:25,150
DA:26,150
DA:27,150
DA:28,300
DA:29,150
DA:30,150
DA:32,150
DA:35,150
DA:36,150
DA:37,0
DA:38,0
DA:39,0
DA:40,0
DA:41,0
DA:43,0
DA:46,1
DA:47,1
DA:48,218
DA:49,215
DA:50,1
DA:52,1
DA:53,1
DA:54,0
DA:56,1
DA:57,0
DA:59,150
DA:63,1950
DA:66,103722
DA:67,103722
DA:69,103722
DA:70,310868
DA:71,103674
DA:73,103573
DA:74,1
DA:75,1
DA:77,103572
DA:78,103572
DA:79,103572
DA:81,103572
DA:82,103572
DA:85,103572
DA:86,49
DA:87,49
DA:88,0
DA:89,49
DA:90,0
DA:91,49
DA:92,0
DA:93,49
DA:94,0
DA:95,49
DA:96,0
DA:97,49
DA:99,49
DA:100,49
DA:101,0
DA:103,0
DA:104,0
DA:105,0
DA:106,0
DA:107,0
DA:109,0
DA:116,103572
DA:117,0
DA:118,0
DA:120,103572
DA:122,101
DA:125,103721
DA:127,150
DA:129,150
DA:131,300
DA:133,150
DA:134,0
DA:135,0
DA:136,0
DA:137,299
DA:138,150
DA:139,0
DA:140,0
DA:141,0
DA:142,150
LF:95
LH:63
end_of_record
TN:
SF:/home/bluebird/mock_project_app_music_video_player/final/media_player/PlayerMediaApp/test/Controller/MediaScannerControllerTest.cpp
FN:14,_ZN20MockMediaFileManager12addMediaFileENSt7__cxx1112basic_stringIcSt11char_traitsIcESaIcEEES5_
FN:14,_ZN20MockMediaFileManager18gmock_addMediaFileERKN7testing7MatcherINSt7__cxx1112basic_stringIcSt11char_traitsIcESaIcEEEEESA_
FN:16,_ZN20MockMediaFileManager13loadMediaFileENSt7__cxx1112basic_stringIcSt11char_traitsIcESaIcEEES5_
FN:16,_ZN20MockMediaFileManager19gmock_loadMediaFileERKN7testing7MatcherINSt7__cxx1112basic_stringIcSt11char_traitsIcESaIcEEEEESA_
FN:18,_ZN20MockMediaFileManager15getAllMediaFileEv
FN:18,_ZN20MockMediaFileManager21gmock_getAllMediaFileEv
FN:25,_ZN19MockPlaylistManager18gmock_loadPlaylistERKN7testing7MatcherISt10shared_ptrI8PlaylistEEE
FN:25,_ZN19MockPlaylistManager12loadPlaylistESt10shared_ptrI8PlaylistE
FN:31,_ZN17MockFolderManager28gmock_getListFolderDirectoryB5cxx11Ev
FN:31,_ZN17MockFolderManager22getListFolderDirectoryB5cxx11Ev
FN:33,_ZN17MockFolderManager16getListFolderUSBB5cxx11Ev
FN:33,_ZN17MockFolderManager22gmock_getListFolderUSBB5cxx11Ev
FN:35,_ZN17MockFolderManager20getListPathDirectoryENSt7__cxx1112basic_stringIcSt11char_traitsIcESaIcEEE
FN:35,_ZN17MockFolderManager26gmock_getListPathDirectoryERKN7testing7MatcherINSt7__cxx1112basic_stringIcSt11char_traitsIcESaIcEEEEE
FN:37,_ZN17MockFolderManager20gmock_getListPathUSBERKN7testing7MatcherINSt7__cxx1112basic_stringIcSt11char_traitsIcESaIcEEEEE
FN:37,_ZN17MockFolderManager14getListPathUSBENSt7__cxx1112basic_stringIcSt11char_traitsIcESaIcEEE
FN:40,_ZN17MockFolderManager24gmock_getFolderDirectoryERKN7testing7MatcherINSt7__cxx1112basic_stringIcSt11char_traitsIcESaIcEEEEE
FN:40,_ZN17MockFolderManager18getFolderDirectoryENSt7__cxx1112basic_stringIcSt11char_traitsIcESaIcEEE
FN:42,_ZN17MockFolderManager12getFolderUSBENSt7__cxx1112basic_stringIcSt11char_traitsIcESaIcEEE
FN:42,_ZN17MockFolderManager18gmock_getFolderUSBERKN7testing7MatcherINSt7__cxx1112basic_stringIcSt11char_traitsIcESaIcEEEEE
FN:44,_ZN17MockFolderManager19saveFolderDirectoryENSt7__cxx1112basic_stringIcSt11char_traitsIcESaIcEEE
FN:44,_ZN17MockFolderManager25gmock_saveFolderDirectoryERKN7testing7MatcherINSt7__cxx1112basic_stringIcSt11char_traitsIcESaIcEEEEE
FN:45,_ZN17MockFolderManager19gmock_saveFolderUSBERKN7testing7MatcherINSt7__cxx1112basic_stringIcSt11char_traitsIcESaIcEEEEE
FN:45,_ZN17MockFolderManager13saveFolderUSBENSt7__cxx1112basic_stringIcSt11char_traitsIcESaIcEEE
FN:47,_ZN17MockFolderManager21updateFolderDirectoryENSt7__cxx1112basic_stringIcSt11char_traitsIcESaIcEEE
FN:47,_ZN17MockFolderManager27gmock_updateFolderDirectoryERKN7testing7MatcherINSt7__cxx1112basic_stringIcSt11char_traitsIcESaIcEEEEE
FN:49,_ZN17MockFolderManager15updateFolderUSBENSt7__cxx1112basic_stringIcSt11char_traitsIcESaIcEEE
FN:49,_ZN17MockFolderManager21gmock_updateFolderUSBERKN7testing7MatcherINSt7__cxx1112basic_stringIcSt11char_traitsIcESaIcEEEEE
FN:51,_ZN17MockFolderManager22addDataFolderDirectoryERKNSt7__cxx1112basic_stringIcSt11char_traitsIcESaIcEEESt13unordered_setIS5_St4hashIS5_ESt8equal_toIS5_ESaIS5_EE
FN:51,_ZN17MockFolderManager28gmock_addDataFolderDirectoryERKN7testing7MatcherIRKNSt7__cxx1112basic_stringIcSt11char_traitsIcESaIcEEEEERKNS1_ISt13unordered_setIS7_St4hashIS7_ESt8equal_toIS7_ESaIS7_EEEE
FN:55,_ZN17MockFolderManager22gmock_addDataFolderUSBERKN7testing7MatcherIRKNSt7__cxx1112basic_stringIcSt11char_traitsIcESaIcEEEEERKNS1_ISt13unordered_setIS7_St4hashIS7_ESt8equal_toIS7_ESaIS7_EEEE
FN:55,_ZN17MockFolderManager16addDataFolderUSBERKNSt7__cxx1112basic_stringIcSt11char_traitsIcESaIcEEESt13unordered_setIS5_St4hashIS5_ESt8equal_toIS5_ESaIS5_EE
FN:65,_ZN12MockBaseView20gmock_showListFolderERKN7testing7MatcherISt6vectorINSt7__cxx1112basic_stringIcSt11char_traitsIcESaIcEEESaIS8_EEEE
FN:65,_ZN12MockBaseView14showListFolderESt6vectorINSt7__cxx1112basic_stringIcSt11char_traitsIcESaIcEEESaIS6_EE
FN:67,_ZN12MockBaseView21gmock_showListUSBNameERKN7testing7MatcherISt6vectorINSt7__cxx1112basic_stringIcSt11char_traitsIcESaIcEEESaIS8_EEEE
FN:67,_ZN12MockBaseView15showListUSBNameESt6vectorINSt7__cxx1112basic_stringIcSt11char_traitsIcESaIcEEESaIS6_EE
FN:69,_ZN12MockBaseView8showMenuEv
FN:69,_ZN12MockBaseView14gmock_showMenuEv
FN:74,_ZN26MockMediaScannerControllerC2ER16MediaFileManagerR15PlaylistManagerR13FolderManagerSt10shared_ptrI8BaseViewE
FN:77,_ZN26MockMediaScannerController17scanHomeDirectoryEv
FN:77,_ZN26MockMediaScannerController23gmock_scanHomeDirectoryEv
FN:78,_ZN26MockMediaScannerController14scanUSBDevicesEv
FN:78,_ZN26MockMediaScannerController20gmock_scanUSBDevicesEv
FN:80,_ZN26MockMediaScannerController8loadDataEv
FN:80,_ZN26MockMediaScannerController14gmock_loadDataEv
FN:81,_ZN26MockMediaScannerController16gmock_loadFolderEv
FN:81,_ZN26MockMediaScannerController10loadFolderEv
FN:82,_ZN26MockMediaScannerController17loadMediaPlaylistEv
FN:82,_ZN26MockMediaScannerController23gmock_loadMediaPlaylistEv
FN:84,_ZN26MockMediaScannerController21addDataFileWithFolderENSt7__cxx1112basic_stringIcSt11char_traitsIcESaIcEEES5_
FN:86,_ZN26MockMediaScannerController12list_foldersERKNSt7__cxx1112basic_stringIcSt11char_traitsIcESaIcEEE
FN:86,_ZN26MockMediaScannerController18gmock_list_foldersERKN7testing7MatcherIRKNSt7__cxx1112basic_stringIcSt11char_traitsIcESaIcEEEEE
FN:87,_ZN26MockMediaScannerController16list_media_filesERKNSt7__cxx1112basic_stringIcSt11char_traitsIcESaIcEEE
FN:87,_ZN26MockMediaScannerController22gmock_list_media_filesERKN7testing7MatcherIRKNSt7__cxx1112basic_stringIcSt11char_traitsIcESaIcEEEEE
FN:88,_ZN26MockMediaScannerController10fileExistsERKNSt7__cxx1112basic_stringIcSt11char_traitsIcESaIcEEE
FN:88,_ZNK26MockMediaScannerController16gmock_fileExistsERKN7testing8internal15WithoutMatchersEPNS1_8FunctionIFbRKNSt7__cxx1112basic_stringIcSt11char_traitsIcESaIcEEEEEE
FN:88,_ZN26MockMediaScannerController16gmock_fileExistsERKN7testing7MatcherIRKNSt7__cxx1112basic_stringIcSt11char_traitsIcESaIcEEEEE
FN:89,_ZN26MockMediaScannerController16gmock_scanFolderERKN7testing7MatcherIRKNSt7__cxx1112basic_stringIcSt11char_traitsIcESaIcEEEEE
FN:89,_ZN26MockMediaScannerController10scanFolderERKNSt7__cxx1112basic_stringIcSt11char_traitsIcESaIcEEE
FN:102,_ZN26MediaScannerControllerTest5SetUpEv
FN:111,_ZN58MediaScannerControllerTest_CheckFolderDirectory_Empty_TestD0Ev
FN:111,_ZN58MediaScannerControllerTest_CheckFolderDirectory_Empty_Test8TestBodyEv
FN:111,_ZN58MediaScannerControllerTest_CheckFolderDirectory_Empty_TestD2Ev
FN:111,_ZN58MediaScannerControllerTest_CheckFolderDirectory_Empty_TestC2Ev
FN:119,_ZN50MediaScannerControllerTest_HasExtension_Valid_Test8TestBodyEv
FN:119,_ZN50MediaScannerControllerTest_HasExtension_Valid_TestD0Ev
FN:119,_ZN50MediaScannerControllerTest_HasExtension_Valid_TestC2Ev
FN:119,_ZN50MediaScannerControllerTest_HasExtension_Valid_TestD2Ev
FN:125,_ZN52MediaScannerControllerTest_HasExtension_Invalid_TestD0Ev
FN:125,_ZN52MediaScannerControllerTest_HasExtension_Invalid_TestC2Ev
FN:125,_ZN52MediaScannerControllerTest_HasExtension_Invalid_TestD2Ev
FN:125,_ZN52MediaScannerControllerTest_HasExtension_Invalid_Test8TestBodyEv
FN:131,_ZN58MediaScannerControllerTest_HasExtension_EmptyFilename_TestC2Ev
FN:131,_ZN58MediaScannerControllerTest_HasExtension_EmptyFilename_TestD2Ev
FN:131,_ZN58MediaScannerControllerTest_HasExtension_EmptyFilename_Test8TestBodyEv
FN:131,_ZN58MediaScannerControllerTest_HasExtension_EmptyFilename_TestD0Ev
FN:135,_ZN59MediaScannerControllerTest_HasExtension_EmptyExtension_Test8TestBodyEv
FN:135,_ZN59MediaScannerControllerTest_HasExtension_EmptyExtension_TestC2Ev
FN:135,_ZN59MediaScannerControllerTest_HasExtension_EmptyExtension_TestD0Ev
FN:135,_ZN59MediaScannerControllerTest_HasExtension_EmptyExtension_TestD2Ev
FN:140,_ZN51MediaScannerControllerTest_ListFolders_Success_Test8TestBodyEv
FN:140,_ZN51MediaScannerControllerTest_ListFolders_Success_TestD2Ev
FN:140,_ZN51MediaScannerControllerTest_ListFolders_Success_TestD0Ev
FN:140,_ZN51MediaScannerControllerTest_ListFolders_Success_TestC2Ev
FN:154,_ZN64MediaScannerControllerTest_ListFolders_ActualImplementation_Test8TestBodyEv
FN:154,_ZN64MediaScannerControllerTest_ListFolders_ActualImplementation_TestC2Ev
FN:154,_ZN64MediaScannerControllerTest_ListFolders_ActualImplementation_TestD0Ev
FN:154,_ZN64MediaScannerControllerTest_ListFolders_ActualImplementation_TestD2Ev
FN:165,_ZN49MediaScannerControllerTest_ListFolders_Empty_TestC2Ev
FN:165,_ZN49MediaScannerControllerTest_ListFolders_Empty_Test8TestBodyEv
FN:165,_ZN49MediaScannerControllerTest_ListFolders_Empty_TestD0Ev
FN:165,_ZN49MediaScannerControllerTest_ListFolders_Empty_TestD2Ev
FN:179,_ZN55MediaScannerControllerTest_ListFolders_InvalidPath_Test8TestBodyEv
FN:179,_ZN55MediaScannerControllerTest_ListFolders_InvalidPath_TestD0Ev
FN:179,_ZN55MediaScannerControllerTest_ListFolders_InvalidPath_TestD2Ev
FN:179,_ZN55MediaScannerControllerTest_ListFolders_InvalidPath_TestC2Ev
FN:190,_ZN54MediaScannerControllerTest_ListMediaFiles_Success_TestC2Ev
FN:190,_ZN54MediaScannerControllerTest_ListMediaFiles_Success_TestD0Ev
FN:190,_ZN54MediaScannerControllerTest_ListMediaFiles_Success_TestD2Ev
FN:190,_ZN54MediaScannerControllerTest_ListMediaFiles_Success_Test8TestBodyEv
FN:207,_ZN59MediaScannerControllerTest_ListMediaFiles_NoValidFiles_TestD0Ev
FN:207,_ZN59MediaScannerControllerTest_ListMediaFiles_NoValidFiles_TestD2Ev
FN:207,_ZN59MediaScannerControllerTest_ListMediaFiles_NoValidFiles_Test8TestBodyEv
FN:207,_ZN59MediaScannerControllerTest_ListMediaFiles_NoValidFiles_TestC2Ev
FN:222,_ZN58MediaScannerControllerTest_ListMediaFiles_InvalidPath_TestD0Ev
FN:222,_ZN58MediaScannerControllerTest_ListMediaFiles_InvalidPath_TestD2Ev
FN:222,_ZN58MediaScannerControllerTest_ListMediaFiles_InvalidPath_Test8TestBodyEv
FN:222,_ZN58MediaScannerControllerTest_ListMediaFiles_InvalidPath_TestC2Ev
FN:233,_ZN61MediaScannerControllerTest_CheckFolderDirectory_NotEmpty_TestD2Ev
FN:233,_ZN61MediaScannerControllerTest_CheckFolderDirectory_NotEmpty_TestC2Ev
FN:233,_ZN61MediaScannerControllerTest_CheckFolderDirectory_NotEmpty_TestD0Ev
FN:233,_ZN61MediaScannerControllerTest_CheckFolderDirectory_NotEmpty_Test8TestBodyEv
FN:241,_ZN52MediaScannerControllerTest_FileExists_ValidFile_TestD2Ev
FN:241,_ZN52MediaScannerControllerTest_FileExists_ValidFile_TestC2Ev
FN:241,_ZN52MediaScannerControllerTest_FileExists_ValidFile_Test8TestBodyEv
FN:241,_ZN52MediaScannerControllerTest_FileExists_ValidFile_TestD0Ev
FN:250,_ZN58MediaScannerControllerTest_FileExists_NonExistentFile_TestD0Ev
FN:250,_ZN58MediaScannerControllerTest_FileExists_NonExistentFile_TestD2Ev
FN:250,_ZN58MediaScannerControllerTest_FileExists_NonExistentFile_Test8TestBodyEv
FN:250,_ZN58MediaScannerControllerTest_FileExists_NonExistentFile_TestC2Ev
FN:263,_ZN54MediaScannerControllerTest_FileExists_InvalidPath_Test8TestBodyEv
FN:263,_ZN54MediaScannerControllerTest_FileExists_InvalidPath_TestC2Ev
FN:263,_ZN54MediaScannerControllerTest_FileExists_InvalidPath_TestD2Ev
FN:263,_ZN54MediaScannerControllerTest_FileExists_InvalidPath_TestD0Ev
FN:277,_ZN55MediaScannerControllerTest_CheckFolderUSB_NotEmpty_TestD0Ev
FN:277,_ZN55MediaScannerControllerTest_CheckFolderUSB_NotEmpty_TestC2Ev
FN:277,_ZN55MediaScannerControllerTest_CheckFolderUSB_NotEmpty_Test8TestBodyEv
FN:277,_ZN55MediaScannerControllerTest_CheckFolderUSB_NotEmpty_TestD2Ev
FN:285,_ZN52MediaScannerControllerTest_CheckFolderUSB_Empty_Test8TestBodyEv
FN:285,_ZN52MediaScannerControllerTest_CheckFolderUSB_Empty_TestD2Ev
FN:285,_ZN52MediaScannerControllerTest_CheckFolderUSB_Empty_TestD0Ev
FN:285,_ZN52MediaScannerControllerTest_CheckFolderUSB_Empty_TestC2Ev
FN:293,_ZN50MediaScannerControllerTest_ScanFolder_Success_TestD0Ev
FN:293,_ZN50MediaScannerControllerTest_ScanFolder_Success_Test8TestBodyEv
FN:293,_ZN50MediaScannerControllerTest_ScanFolder_Success_TestD2Ev
FN:293,_ZN50MediaScannerControllerTest_ScanFolder_Success_TestC2Ev
FN:313,_ZN63MediaScannerControllerTest_ScanFolder_ActualImplementation_TestD2Ev
FN:313,_ZN63MediaScannerControllerTest_ScanFolder_ActualImplementation_TestD0Ev
FN:313,_ZN63MediaScannerControllerTest_ScanFolder_ActualImplementation_TestC2Ev
FN:313,_ZN63MediaScannerControllerTest_ScanFolder_ActualImplementation_Test8TestBodyEv
FN:322,_ZN73MediaScannerControllerTest_AddDataFileWithFolderDirectory_ValidFiles_TestD0Ev
FN:322,_ZN73MediaScannerControllerTest_AddDataFileWithFolderDirectory_ValidFiles_TestC2Ev
FN:322,_ZN73MediaScannerControllerTest_AddDataFileWithFolderDirectory_ValidFiles_TestD2Ev
FN:322,_ZN73MediaScannerControllerTest_AddDataFileWithFolderDirectory_ValidFiles_Test8TestBodyEv
FN:338,_ZN67MediaScannerControllerTest_AddDataFileWithFolderUSB_ValidFiles_Test8TestBodyEv
FN:338,_ZN67MediaScannerControllerTest_AddDataFileWithFolderUSB_ValidFiles_TestD0Ev
FN:338,_ZN67MediaScannerControllerTest_AddDataFileWithFolderUSB_ValidFiles_TestC2Ev
FN:338,_ZN67MediaScannerControllerTest_AddDataFileWithFolderUSB_ValidFiles_TestD2Ev
FN:355,_ZN48MediaScannerControllerTest_LoadData_Success_TestD0Ev
FN:355,_ZN48MediaScannerControllerTest_LoadData_Success_TestC2Ev
FN:355,_ZN48MediaScannerControllerTest_LoadData_Success_TestD2Ev
FN:355,_ZN48MediaScannerControllerTest_LoadData_Success_Test8TestBodyEv
FN:370,_ZZN48MediaScannerControllerTest_LoadData_Success_Test8TestBodyEvENKUlRKNSt7__cxx1112basic_stringIcSt11char_traitsIcESaIcEEEE_clES7_
FN:384,_ZN57MediaScannerControllerTest_LoadMediaPlaylist_Success_TestD2Ev
FN:384,_ZN57MediaScannerControllerTest_LoadMediaPlaylist_Success_TestC2Ev
FN:384,_ZN57MediaScannerControllerTest_LoadMediaPlaylist_Success_Test8TestBodyEv
FN:384,_ZN57MediaScannerControllerTest_LoadMediaPlaylist_Success_TestD0Ev
FN:405,_ZN50MediaScannerControllerTest_LoadFolder_Success_TestC2Ev
FN:405,_ZN50MediaScannerControllerTest_LoadFolder_Success_Test8TestBodyEv
FN:405,_ZN50MediaScannerControllerTest_LoadFolder_Success_TestD2Ev
FN:405,_ZN50MediaScannerControllerTest_LoadFolder_Success_TestD0Ev
FN:442,_ZN57MediaScannerControllerTest_ScanHomeDirectory_Success_Test8TestBodyEv
FN:442,_ZN57MediaScannerControllerTest_ScanHomeDirectory_Success_TestC2Ev
FN:442,_ZN57MediaScannerControllerTest_ScanHomeDirectory_Success_TestD0Ev
FN:442,_ZN57MediaScannerControllerTest_ScanHomeDirectory_Success_TestD2Ev
FN:515,_ZN69MediaScannerControllerTest_ScanHomeDirectory_SaveFolderDirectory_TestD0Ev
FN:515,_ZN69MediaScannerControllerTest_ScanHomeDirectory_SaveFolderDirectory_Test8TestBodyEv
FN:515,_ZN69MediaScannerControllerTest_ScanHomeDirectory_SaveFolderDirectory_TestC2Ev
FN:515,_ZN69MediaScannerControllerTest_ScanHomeDirectory_SaveFolderDirectory_TestD2Ev
FN:588,_ZN54MediaScannerControllerTest_ScanUSBDevices_Success_TestC2Ev
FN:588,_ZN54MediaScannerControllerTest_ScanUSBDevices_Success_TestD2Ev
FN:588,_ZN54MediaScannerControllerTest_ScanUSBDevices_Success_TestD0Ev
FN:588,_ZN54MediaScannerControllerTest_ScanUSBDevices_Success_Test8TestBodyEv
FN:639,_ZN60MediaScannerControllerTest_ScanUSBDevices_SaveFolderUSB_TestC2Ev
FN:639,_ZN60MediaScannerControllerTest_ScanUSBDevices_SaveFolderUSB_TestD0Ev
FN:639,_ZN60MediaScannerControllerTest_ScanUSBDevices_SaveFolderUSB_Test8TestBodyEv
FN:639,_ZN60MediaScannerControllerTest_ScanUSBDevices_SaveFolderUSB_TestD2Ev
FN:690,_ZN59MediaScannerControllerTest_GetListPaths_EmptyInitially_TestD0Ev
FN:690,_ZN59MediaScannerControllerTest_GetListPaths_EmptyInitially_Test8TestBodyEv
FN:690,_ZN59MediaScannerControllerTest_GetListPaths_EmptyInitially_TestD2Ev
FN:690,_ZN59MediaScannerControllerTest_GetListPaths_EmptyInitially_TestC2Ev
FN:698,_ZN58MediaScannerControllerTest_GetListPaths_AfterScanning_TestD2Ev
FN:698,_ZN58MediaScannerControllerTest_GetListPaths_AfterScanning_TestC2Ev
FN:698,_ZN58MediaScannerControllerTest_GetListPaths_AfterScanning_Test8TestBodyEv
FN:698,_ZN58MediaScannerControllerTest_GetListPaths_AfterScanning_TestD0Ev
FN:717,_ZN71MediaScannerControllerTest_HandleScan_LoadsDataWhenFoldersNotEmpty_TestD2Ev
FN:717,_ZN71MediaScannerControllerTest_HandleScan_LoadsDataWhenFoldersNotEmpty_Test8TestBodyEv
FN:717,_ZN71MediaScannerControllerTest_HandleScan_LoadsDataWhenFoldersNotEmpty_TestD0Ev
FN:717,_ZN71MediaScannerControllerTest_HandleScan_LoadsDataWhenFoldersNotEmpty_TestC2Ev
FN:734,_ZN73MediaScannerControllerTest_HandleScan_EntersMenuLoopWhenFoldersEmpty_TestD2Ev
FN:734,_ZN73MediaScannerControllerTest_HandleScan_EntersMenuLoopWhenFoldersEmpty_Test8TestBodyEv
FN:734,_ZN73MediaScannerControllerTest_HandleScan_EntersMenuLoopWhenFoldersEmpty_TestD0Ev
FN:734,_ZN73MediaScannerControllerTest_HandleScan_EntersMenuLoopWhenFoldersEmpty_TestC2Ev
FN:752,_ZN63MediaScannerControllerTest_HandleScan_ScansUSBWhenSelected_TestD2Ev
FN:752,_ZN63MediaScannerControllerTest_HandleScan_ScansUSBWhenSelected_TestD0Ev
FN:752,_ZN63MediaScannerControllerTest_HandleScan_ScansUSBWhenSelected_TestC2Ev
FN:752,_ZN63MediaScannerControllerTest_HandleScan_ScansUSBWhenSelected_Test8TestBodyEv
FN:770,_ZN61MediaScannerControllerTest_HandleScan_ExitsOnExitCommand_Test8TestBodyEv
FN:770,_ZN61MediaScannerControllerTest_HandleScan_ExitsOnExitCommand_TestD0Ev
FN:770,_ZN61MediaScannerControllerTest_HandleScan_ExitsOnExitCommand_TestD2Ev
FN:770,_ZN61MediaScannerControllerTest_HandleScan_ExitsOnExitCommand_TestC2Ev
FN:787,_ZN72MediaScannerControllerTest_HandleScan_CatchesInvalidChoiceException_TestD2Ev
FN:787,_ZN72MediaScannerControllerTest_HandleScan_CatchesInvalidChoiceException_Test8TestBodyEv
FN:787,_ZN72MediaScannerControllerTest_HandleScan_CatchesInvalidChoiceException_TestC2Ev
FN:787,_ZN72MediaScannerControllerTest_HandleScan_CatchesInvalidChoiceException_TestD0Ev
FN:803,_ZN60MediaScannerControllerTest_HandleScan_FolderAndUSBExist_Test8TestBodyEv
FN:803,_ZN60MediaScannerControllerTest_HandleScan_FolderAndUSBExist_TestD0Ev
FN:803,_ZN60MediaScannerControllerTest_HandleScan_FolderAndUSBExist_TestD2Ev
FN:803,_ZN60MediaScannerControllerTest_HandleScan_FolderAndUSBExist_TestC2Ev
FNDA:2,_ZN73MediaScannerControllerTest_AddDataFileWithFolderDirectory_ValidFiles_TestD0Ev
FNDA:6,_ZN26MockMediaScannerController12list_foldersERKNSt7__cxx1112basic_stringIcSt11char_traitsIcESaIcEEE
FNDA:2,_ZN69MediaScannerControllerTest_ScanHomeDirectory_SaveFolderDirectory_Test8TestBodyEv
FNDA:2,_ZN50MediaScannerControllerTest_ScanFolder_Success_Test8TestBodyEv
FNDA:2,_ZN57MediaScannerControllerTest_ScanHomeDirectory_Success_TestC2Ev
FNDA:2,_ZN17MockFolderManager19saveFolderDirectoryENSt7__cxx1112basic_stringIcSt11char_traitsIcESaIcEEE
FNDA:2,_ZN71MediaScannerControllerTest_HandleScan_LoadsDataWhenFoldersNotEmpty_Test8TestBodyEv
FNDA:2,_ZN54MediaScannerControllerTest_FileExists_InvalidPath_TestC2Ev
FNDA:2,_ZN63MediaScannerControllerTest_ScanFolder_ActualImplementation_TestD0Ev
FNDA:2,_ZN58MediaScannerControllerTest_CheckFolderDirectory_Empty_TestD0Ev
FNDA:2,_ZN50MediaScannerControllerTest_ScanFolder_Success_TestD0Ev
FNDA:2,_ZN52MediaScannerControllerTest_CheckFolderUSB_Empty_Test8TestBodyEv
FNDA:2,_ZN19MockPlaylistManager18gmock_loadPlaylistERKN7testing7MatcherISt10shared_ptrI8PlaylistEEE
FNDA:2,_ZN52MediaScannerControllerTest_CheckFolderUSB_Empty_TestD2Ev
FNDA:2,_ZN50MediaScannerControllerTest_HasExtension_Valid_Test8TestBodyEv
FNDA:2,_ZN58MediaScannerControllerTest_GetListPaths_AfterScanning_TestC2Ev
FNDA:2,_ZN54MediaScannerControllerTest_ScanUSBDevices_Success_TestD0Ev
FNDA:2,_ZN52MediaScannerControllerTest_HasExtension_Invalid_TestD0Ev
FNDA:4,_ZN17MockFolderManager12getFolderUSBENSt7__cxx1112basic_stringIcSt11char_traitsIcESaIcEEE
FNDA:4,_ZN12MockBaseView21gmock_showListUSBNameERKN7testing7MatcherISt6vectorINSt7__cxx1112basic_stringIcSt11char_traitsIcESaIcEEESaIS8_EEEE
FNDA:2,_ZN63MediaScannerControllerTest_HandleScan_ScansUSBWhenSelected_TestD0Ev
FNDA:2,_ZN58MediaScannerControllerTest_ListMediaFiles_InvalidPath_TestD0Ev
FNDA:2,_ZN57MediaScannerControllerTest_ScanHomeDirectory_Success_Test8TestBodyEv
FNDA:2,_ZN60MediaScannerControllerTest_ScanUSBDevices_SaveFolderUSB_Test8TestBodyEv
FNDA:2,_ZN63MediaScannerControllerTest_ScanFolder_ActualImplementation_TestD2Ev
FNDA:8,_ZN12MockBaseView20gmock_showListFolderERKN7testing7MatcherISt6vectorINSt7__cxx1112basic_stringIcSt11char_traitsIcESaIcEEESaIS8_EEEE
FNDA:2,_ZN61MediaScannerControllerTest_HandleScan_ExitsOnExitCommand_Test8TestBodyEv
FNDA:2,_ZN54MediaScannerControllerTest_ScanUSBDevices_Success_TestD2Ev
FNDA:2,_ZN54MediaScannerControllerTest_FileExists_InvalidPath_Test8TestBodyEv
FNDA:14,_ZN12MockBaseView8showMenuEv
FNDA:2,_ZN59MediaScannerControllerTest_GetListPaths_EmptyInitially_TestD0Ev
FNDA:2,_ZN51MediaScannerControllerTest_ListFolders_Success_Test8TestBodyEv
FNDA:2,_ZN71MediaScannerControllerTest_HandleScan_LoadsDataWhenFoldersNotEmpty_TestD2Ev
FNDA:2,_ZN69MediaScannerControllerTest_ScanHomeDirectory_SaveFolderDirectory_TestD0Ev
FNDA:2,_ZN60MediaScannerControllerTest_HandleScan_FolderAndUSBExist_Test8TestBodyEv
FNDA:2,_ZN61MediaScannerControllerTest_CheckFolderDirectory_NotEmpty_TestD2Ev
FNDA:2,_ZN60MediaScannerControllerTest_ScanUSBDevices_SaveFolderUSB_TestD0Ev
FNDA:2,_ZN49MediaScannerControllerTest_ListFolders_Empty_Test8TestBodyEv
FNDA:2,_ZN20MockMediaFileManager21gmock_getAllMediaFileEv
FNDA:2,_ZN48MediaScannerControllerTest_LoadData_Success_TestD0Ev
FNDA:2,_ZN58MediaScannerControllerTest_GetListPaths_AfterScanning_TestD2Ev
FNDA:2,_ZN20MockMediaFileManager15getAllMediaFileEv
FNDA:2,_ZN59MediaScannerControllerTest_ListMediaFiles_NoValidFiles_TestD0Ev
FNDA:2,_ZN52MediaScannerControllerTest_FileExists_ValidFile_TestD2Ev
FNDA:4,_ZN26MockMediaScannerController16gmock_loadFolderEv
FNDA:2,_ZN26MockMediaScannerController16gmock_scanFolderERKN7testing7MatcherIRKNSt7__cxx1112basic_stringIcSt11char_traitsIcESaIcEEEEE
FNDA:2,_ZN57MediaScannerControllerTest_LoadMediaPlaylist_Success_TestD2Ev
FNDA:2,_ZN63MediaScannerControllerTest_HandleScan_ScansUSBWhenSelected_TestD2Ev
FNDA:2,_ZN58MediaScannerControllerTest_HasExtension_EmptyFilename_TestC2Ev
FNDA:2,_ZN50MediaScannerControllerTest_LoadFolder_Success_TestC2Ev
FNDA:4,_ZN26MockMediaScannerController8loadDataEv
FNDA:2,_ZN58MediaScannerControllerTest_FileExists_NonExistentFile_TestD0Ev
FNDA:2,_ZN72MediaScannerControllerTest_HandleScan_CatchesInvalidChoiceException_TestD2Ev
FNDA:2,_ZN54MediaScannerControllerTest_ScanUSBDevices_Success_TestC2Ev
FNDA:2,_ZN49MediaScannerControllerTest_ListFolders_Empty_TestC2Ev
FNDA:2,_ZN50MediaScannerControllerTest_LoadFolder_Success_Test8TestBodyEv
FNDA:2,_ZN60MediaScannerControllerTest_ScanUSBDevices_SaveFolderUSB_TestC2Ev
FNDA:2,_ZN64MediaScannerControllerTest_ListFolders_ActualImplementation_TestC2Ev
FNDA:2,_ZN55MediaScannerControllerTest_CheckFolderUSB_NotEmpty_TestD0Ev
FNDA:6,_ZN17MockFolderManager20getListPathDirectoryENSt7__cxx1112basic_stringIcSt11char_traitsIcESaIcEEE
FNDA:14,_ZN17MockFolderManager16getListFolderUSBB5cxx11Ev
FNDA:8,_ZN12MockBaseView14gmock_showMenuEv
FNDA:2,_ZN50MediaScannerControllerTest_LoadFolder_Success_TestD0Ev
FNDA:2,_ZN51MediaScannerControllerTest_ListFolders_Success_TestD0Ev
FNDA:2,_ZN58MediaScannerControllerTest_HasExtension_EmptyFilename_Test8TestBodyEv
FNDA:2,_ZN67MediaScannerControllerTest_AddDataFileWithFolderUSB_ValidFiles_TestD2Ev
FNDA:6,_ZN17MockFolderManager22addDataFolderDirectoryERKNSt7__cxx1112basic_stringIcSt11char_traitsIcESaIcEEESt13unordered_setIS5_St4hashIS5_ESt8equal_toIS5_ESaIS5_EE
FNDA:2,_ZN51MediaScannerControllerTest_ListFolders_Success_TestC2Ev
FNDA:2,_ZN59MediaScannerControllerTest_GetListPaths_EmptyInitially_Test8TestBodyEv
FNDA:6,_ZN26MockMediaScannerController16list_media_filesERKNSt7__cxx1112basic_stringIcSt11char_traitsIcESaIcEEE
FNDA:0,_ZZN48MediaScannerControllerTest_LoadData_Success_Test8TestBodyEvENKUlRKNSt7__cxx1112basic_stringIcSt11char_traitsIcESaIcEEEE_clES7_
FNDA:2,_ZN58MediaScannerControllerTest_GetListPaths_AfterScanning_Test8TestBodyEv
FNDA:6,_ZN26MockMediaScannerController18gmock_list_foldersERKN7testing7MatcherIRKNSt7__cxx1112basic_stringIcSt11char_traitsIcESaIcEEEEE
FNDA:4,_ZN26MockMediaScannerController14gmock_loadDataEv
FNDA:2,_ZN17MockFolderManager21updateFolderDirectoryENSt7__cxx1112basic_stringIcSt11char_traitsIcESaIcEEE
FNDA:24,_ZN20MockMediaFileManager12addMediaFileENSt7__cxx1112basic_stringIcSt11char_traitsIcESaIcEEES5_
FNDA:2,_ZN54MediaScannerControllerTest_FileExists_InvalidPath_TestD2Ev
FNDA:4,_ZN17MockFolderManager18gmock_getFolderUSBERKN7testing7MatcherINSt7__cxx1112basic_stringIcSt11char_traitsIcESaIcEEEEE
FNDA:2,_ZN48MediaScannerControllerTest_LoadData_Success_TestC2Ev
FNDA:2,_ZN26MockMediaScannerController10scanFolderERKNSt7__cxx1112basic_stringIcSt11char_traitsIcESaIcEEE
FNDA:4,_ZN12MockBaseView15showListUSBNameESt6vectorINSt7__cxx1112basic_stringIcSt11char_traitsIcESaIcEEESaIS6_EE
FNDA:2,_ZN60MediaScannerControllerTest_HandleScan_FolderAndUSBExist_TestD0Ev
FNDA:2,_ZN73MediaScannerControllerTest_AddDataFileWithFolderDirectory_ValidFiles_TestC2Ev
FNDA:6,_ZN17MockFolderManager20gmock_getListPathUSBERKN7testing7MatcherINSt7__cxx1112basic_stringIcSt11char_traitsIcESaIcEEEEE
FNDA:2,_ZN17MockFolderManager13saveFolderUSBENSt7__cxx1112basic_stringIcSt11char_traitsIcESaIcEEE
FNDA:2,_ZN48MediaScannerControllerTest_LoadData_Success_TestD2Ev
FNDA:2,_ZN59MediaScannerControllerTest_ListMediaFiles_NoValidFiles_TestD2Ev
FNDA:2,_ZN54MediaScannerControllerTest_ListMediaFiles_Success_TestC2Ev
FNDA:2,_ZN52MediaScannerControllerTest_FileExists_ValidFile_Test8TestBodyEv
FNDA:2,_ZN57MediaScannerControllerTest_ScanHomeDirectory_Success_TestD0Ev
FNDA:2,_ZN61MediaScannerControllerTest_HandleScan_ExitsOnExitCommand_TestD2Ev
FNDA:2,_ZN51MediaScannerControllerTest_ListFolders_Success_TestD2Ev
FNDA:2,_ZN17MockFolderManager19gmock_saveFolderUSBERKN7testing7MatcherINSt7__cxx1112basic_stringIcSt11char_traitsIcESaIcEEEEE
FNDA:2,_ZN55MediaScannerControllerTest_ListFolders_InvalidPath_Test8TestBodyEv
FNDA:2,_ZN61MediaScannerControllerTest_HandleScan_ExitsOnExitCommand_TestD0Ev
FNDA:2,_ZN58MediaScannerControllerTest_HasExtension_EmptyFilename_TestD2Ev
FNDA:2,_ZN72MediaScannerControllerTest_HandleScan_CatchesInvalidChoiceException_Test8TestBodyEv
FNDA:2,_ZN64MediaScannerControllerTest_ListFolders_ActualImplementation_Test8TestBodyEv
FNDA:2,_ZN50MediaScannerControllerTest_LoadFolder_Success_TestD2Ev
FNDA:2,_ZN59MediaScannerControllerTest_HasExtension_EmptyExtension_Test8TestBodyEv
FNDA:2,_ZN59MediaScannerControllerTest_HasExtension_EmptyExtension_TestC2Ev
FNDA:2,_ZN58MediaScannerControllerTest_FileExists_NonExistentFile_TestD2Ev
FNDA:2,_ZN67MediaScannerControllerTest_AddDataFileWithFolderUSB_ValidFiles_Test8TestBodyEv
FNDA:2,_ZN58MediaScannerControllerTest_ListMediaFiles_InvalidPath_TestD2Ev
FNDA:2,_ZN50MediaScannerControllerTest_HasExtension_Valid_TestD0Ev
FNDA:2,_ZN67MediaScannerControllerTest_AddDataFileWithFolderUSB_ValidFiles_TestC2Ev
FNDA:16,_ZN17MockFolderManager28gmock_getListFolderDirectoryB5cxx11Ev
FNDA:2,_ZN49MediaScannerControllerTest_ListFolders_Empty_TestD0Ev
FNDA:2,_ZN52MediaScannerControllerTest_FileExists_ValidFile_TestC2Ev
FNDA:2,_ZN26MockMediaScannerController17scanHomeDirectoryEv
FNDA:2,_ZN59MediaScannerControllerTest_HasExtension_EmptyExtension_TestD0Ev
FNDA:2,_ZN73MediaScannerControllerTest_HandleScan_EntersMenuLoopWhenFoldersEmpty_TestD2Ev
FNDA:2,_ZN19MockPlaylistManager12loadPlaylistESt10shared_ptrI8PlaylistE
FNDA:2,_ZN67MediaScannerControllerTest_AddDataFileWithFolderUSB_ValidFiles_TestD0Ev
FNDA:2,_ZN61MediaScannerControllerTest_HandleScan_ExitsOnExitCommand_TestC2Ev
FNDA:2,_ZN60MediaScannerControllerTest_HandleScan_FolderAndUSBExist_TestD2Ev
FNDA:2,_ZN59MediaScannerControllerTest_ListMediaFiles_NoValidFiles_Test8TestBodyEv
FNDA:2,_ZN73MediaScannerControllerTest_HandleScan_EntersMenuLoopWhenFoldersEmpty_TestD0Ev
FNDA:2,_ZN55MediaScannerControllerTest_ListFolders_InvalidPath_TestD0Ev
FNDA:2,_ZN55MediaScannerControllerTest_ListFolders_InvalidPath_TestD2Ev
FNDA:2,_ZN58MediaScannerControllerTest_HasExtension_EmptyFilename_TestD0Ev
FNDA:2,_ZN58MediaScannerControllerTest_CheckFolderDirectory_Empty_Test8TestBodyEv
FNDA:2,_ZN50MediaScannerControllerTest_ScanFolder_Success_TestD2Ev
FNDA:2,_ZN63MediaScannerControllerTest_ScanFolder_ActualImplementation_TestC2Ev
FNDA:2,_ZN59MediaScannerControllerTest_GetListPaths_EmptyInitially_TestC2Ev
FNDA:2,_ZN54MediaScannerControllerTest_FileExists_InvalidPath_TestD0Ev
FNDA:2,_ZN58MediaScannerControllerTest_GetListPaths_AfterScanning_TestD0Ev
FNDA:2,_ZN72MediaScannerControllerTest_HandleScan_CatchesInvalidChoiceException_TestC2Ev
FNDA:2,_ZN73MediaScannerControllerTest_HandleScan_EntersMenuLoopWhenFoldersEmpty_Test8TestBodyEv
FNDA:2,_ZN58MediaScannerControllerTest_FileExists_NonExistentFile_Test8TestBodyEv
FNDA:8,_ZN26MockMediaScannerController23gmock_scanHomeDirectoryEv
FNDA:2,_ZN52MediaScannerControllerTest_FileExists_ValidFile_TestD0Ev
FNDA:24,_ZN20MockMediaFileManager18gmock_addMediaFileERKN7testing7MatcherINSt7__cxx1112basic_stringIcSt11char_traitsIcESaIcEEEEESA_
FNDA:2,_ZN60MediaScannerControllerTest_ScanUSBDevices_SaveFolderUSB_TestD2Ev
FNDA:2,_ZN17MockFolderManager25gmock_saveFolderDirectoryERKN7testing7MatcherINSt7__cxx1112basic_stringIcSt11char_traitsIcESaIcEEEEE
FNDA:2,_ZN52MediaScannerControllerTest_CheckFolderUSB_Empty_TestD0Ev
FNDA:8,_ZN12MockBaseView14showListFolderESt6vectorINSt7__cxx1112basic_stringIcSt11char_traitsIcESaIcEEESaIS6_EE
FNDA:2,_ZN54MediaScannerControllerTest_ListMediaFiles_Success_TestD0Ev
FNDA:2,_ZN63MediaScannerControllerTest_HandleScan_ScansUSBWhenSelected_TestC2Ev
FNDA:2,_ZN59MediaScannerControllerTest_GetListPaths_EmptyInitially_TestD2Ev
FNDA:6,_ZN26MockMediaScannerController22gmock_list_media_filesERKN7testing7MatcherIRKNSt7__cxx1112basic_stringIcSt11char_traitsIcESaIcEEEEE
FNDA:16,_ZN17MockFolderManager22getListFolderDirectoryB5cxx11Ev
FNDA:6,_ZN17MockFolderManager26gmock_getListPathDirectoryERKN7testing7MatcherINSt7__cxx1112basic_stringIcSt11char_traitsIcESaIcEEEEE
FNDA:2,_ZN61MediaScannerControllerTest_CheckFolderDirectory_NotEmpty_TestC2Ev
FNDA:2,_ZN57MediaScannerControllerTest_LoadMediaPlaylist_Success_TestC2Ev
FNDA:0,_ZN26MockMediaScannerController21addDataFileWithFolderENSt7__cxx1112basic_stringIcSt11char_traitsIcESaIcEEES5_
FNDA:100,_ZN26MockMediaScannerControllerC2ER16MediaFileManagerR15PlaylistManagerR13FolderManagerSt10shared_ptrI8BaseViewE
FNDA:6,_ZN17MockFolderManager28gmock_addDataFolderDirectoryERKN7testing7MatcherIRKNSt7__cxx1112basic_stringIcSt11char_traitsIcESaIcEEEEERKNS1_ISt13unordered_setIS7_St4hashIS7_ESt8equal_toIS7_ESaIS7_EEEE
FNDA:2,_ZN55MediaScannerControllerTest_CheckFolderUSB_NotEmpty_TestC2Ev
FNDA:16,_ZN17MockFolderManager22gmock_getListFolderUSBB5cxx11Ev
FNDA:2,_ZN58MediaScannerControllerTest_FileExists_NonExistentFile_TestC2Ev
FNDA:8,_ZN26MockMediaScannerController20gmock_scanUSBDevicesEv
FNDA:2,_ZN71MediaScannerControllerTest_HandleScan_LoadsDataWhenFoldersNotEmpty_TestC2Ev
FNDA:4,_ZN17MockFolderManager18getFolderDirectoryENSt7__cxx1112basic_stringIcSt11char_traitsIcESaIcEEE
FNDA:8,_ZN20MockMediaFileManager19gmock_loadMediaFileERKN7testing7MatcherINSt7__cxx1112basic_stringIcSt11char_traitsIcESaIcEEEEESA_
FNDA:2,_ZN17MockFolderManager21gmock_updateFolderUSBERKN7testing7MatcherINSt7__cxx1112basic_stringIcSt11char_traitsIcESaIcEEEEE
FNDA:2,_ZN54MediaScannerControllerTest_ScanUSBDevices_Success_Test8TestBodyEv
FNDA:2,_ZN64MediaScannerControllerTest_ListFolders_ActualImplementation_TestD2Ev
FNDA:2,_ZN48MediaScannerControllerTest_LoadData_Success_Test8TestBodyEv
FNDA:2,_ZN17MockFolderManager15updateFolderUSBENSt7__cxx1112basic_stringIcSt11char_traitsIcESaIcEEE
FNDA:2,_ZN50MediaScannerControllerTest_HasExtension_Valid_TestD2Ev
FNDA:2,_ZNK26MockMediaScannerController16gmock_fileExistsERKN7testing8internal15WithoutMatchersEPNS1_8FunctionIFbRKNSt7__cxx1112basic_stringIcSt11char_traitsIcESaIcEEEEEE
FNDA:2,_ZN50MediaScannerControllerTest_HasExtension_Valid_TestC2Ev
FNDA:2,_ZN63MediaScannerControllerTest_HandleScan_ScansUSBWhenSelected_Test8TestBodyEv
FNDA:74,_ZN26MediaScannerControllerTest5SetUpEv
FNDA:2,_ZN73MediaScannerControllerTest_AddDataFileWithFolderDirectory_ValidFiles_Test8TestBodyEv
FNDA:2,_ZN52MediaScannerControllerTest_HasExtension_Invalid_Test8TestBodyEv
FNDA:4,_ZN17MockFolderManager24gmock_getFolderDirectoryERKN7testing7MatcherINSt7__cxx1112basic_stringIcSt11char_traitsIcESaIcEEEEE
FNDA:2,_ZN64MediaScannerControllerTest_ListFolders_ActualImplementation_TestD0Ev
FNDA:2,_ZN54MediaScannerControllerTest_ListMediaFiles_Success_Test8TestBodyEv
FNDA:2,_ZN26MockMediaScannerController14scanUSBDevicesEv
FNDA:6,_ZN26MockMediaScannerController16gmock_fileExistsERKN7testing7MatcherIRKNSt7__cxx1112basic_stringIcSt11char_traitsIcESaIcEEEEE
FNDA:2,_ZN50MediaScannerControllerTest_ScanFolder_Success_TestC2Ev
FNDA:2,_ZN59MediaScannerControllerTest_HasExtension_EmptyExtension_TestD2Ev
FNDA:4,_ZN26MockMediaScannerController23gmock_loadMediaPlaylistEv
FNDA:2,_ZN17MockFolderManager27gmock_updateFolderDirectoryERKN7testing7MatcherINSt7__cxx1112basic_stringIcSt11char_traitsIcESaIcEEEEE
FNDA:2,_ZN58MediaScannerControllerTest_ListMediaFiles_InvalidPath_TestC2Ev
FNDA:2,_ZN55MediaScannerControllerTest_CheckFolderUSB_NotEmpty_TestD2Ev
FNDA:2,_ZN69MediaScannerControllerTest_ScanHomeDirectory_SaveFolderDirectory_TestD2Ev
FNDA:2,_ZN52MediaScannerControllerTest_HasExtension_Invalid_TestC2Ev
FNDA:2,_ZN57MediaScannerControllerTest_ScanHomeDirectory_Success_TestD2Ev
FNDA:2,_ZN61MediaScannerControllerTest_CheckFolderDirectory_NotEmpty_Test8TestBodyEv
FNDA:2,_ZN52MediaScannerControllerTest_HasExtension_Invalid_TestD2Ev
FNDA:2,_ZN69MediaScannerControllerTest_ScanHomeDirectory_SaveFolderDirectory_TestC2Ev
FNDA:2,_ZN55MediaScannerControllerTest_CheckFolderUSB_NotEmpty_Test8TestBodyEv
FNDA:4,_ZN26MockMediaScannerController17loadMediaPlaylistEv
FNDA:2,_ZN59MediaScannerControllerTest_ListMediaFiles_NoValidFiles_TestC2Ev
FNDA:2,_ZN60MediaScannerControllerTest_HandleScan_FolderAndUSBExist_TestC2Ev
FNDA:2,_ZN73MediaScannerControllerTest_HandleScan_EntersMenuLoopWhenFoldersEmpty_TestC2Ev
FNDA:2,_ZN72MediaScannerControllerTest_HandleScan_CatchesInvalidChoiceException_TestD0Ev
FNDA:6,_ZN17MockFolderManager16addDataFolderUSBERKNSt7__cxx1112basic_stringIcSt11char_traitsIcESaIcEEESt13unordered_setIS5_St4hashIS5_ESt8equal_toIS5_ESaIS5_EE
FNDA:2,_ZN58MediaScannerControllerTest_CheckFolderDirectory_Empty_TestC2Ev
FNDA:4,_ZN26MockMediaScannerController10loadFolderEv
FNDA:2,_ZN58MediaScannerControllerTest_CheckFolderDirectory_Empty_TestD2Ev
FNDA:2,_ZN58MediaScannerControllerTest_ListMediaFiles_InvalidPath_Test8TestBodyEv
FNDA:2,_ZN49MediaScannerControllerTest_ListFolders_Empty_TestD2Ev
FNDA:6,_ZN17MockFolderManager14getListPathUSBENSt7__cxx1112basic_stringIcSt11char_traitsIcESaIcEEE
FNDA:6,_ZN17MockFolderManager22gmock_addDataFolderUSBERKN7testing7MatcherIRKNSt7__cxx1112basic_stringIcSt11char_traitsIcESaIcEEEEERKNS1_ISt13unordered_setIS7_St4hashIS7_ESt8equal_toIS7_ESaIS7_EEEE
FNDA:2,_ZN57MediaScannerControllerTest_LoadMediaPlaylist_Success_Test8TestBodyEv
FNDA:2,_ZN73MediaScannerControllerTest_AddDataFileWithFolderDirectory_ValidFiles_TestD2Ev
FNDA:2,_ZN54MediaScannerControllerTest_ListMediaFiles_Success_TestD2Ev
FNDA:2,_ZN55MediaScannerControllerTest_ListFolders_InvalidPath_TestC2Ev
FNDA:2,_ZN61MediaScannerControllerTest_CheckFolderDirectory_NotEmpty_TestD0Ev
FNDA:2,_ZN71MediaScannerControllerTest_HandleScan_LoadsDataWhenFoldersNotEmpty_TestD0Ev
FNDA:4,_ZN26MockMediaScannerController10fileExistsERKNSt7__cxx1112basic_stringIcSt11char_traitsIcESaIcEEE
FNDA:8,_ZN20MockMediaFileManager13loadMediaFileENSt7__cxx1112basic_stringIcSt11char_traitsIcESaIcEEES5_
FNDA:2,_ZN52MediaScannerControllerTest_CheckFolderUSB_Empty_TestC2Ev
FNDA:2,_ZN57MediaScannerControllerTest_LoadMediaPlaylist_Success_TestD0Ev
FNDA:2,_ZN63MediaScannerControllerTest_ScanFolder_ActualImplementation_Test8TestBodyEv
FNF:209
FNH:207
DA:14,48
DA:16,16
DA:18,4
DA:25,4
DA:31,32
DA:33,30
DA:35,12
DA:37,12
DA:40,8
DA:42,8
DA:44,4
DA:45,4
DA:47,4
DA:49,4
DA:51,12
DA:55,12
DA:65,16
DA:67,8
DA:69,22
DA:74,100
DA:75,100
DA:77,10
DA:78,10
DA:80,8
DA:81,8
DA:82,8
DA:84,0
DA:86,12
DA:87,12
DA:88,14
DA:89,4
DA:102,74
DA:103,74
DA:104,74
DA:105,74
DA:106,74
DA:111,8
DA:112,2
DA:113,2
DA:115,2
DA:116,2
DA:117,2
DA:119,8
DA:120,2
DA:121,2
DA:122,2
DA:123,2
DA:125,8
DA:126,2
DA:127,2
DA:128,2
DA:129,2
DA:131,8
DA:132,2
DA:133,2
DA:135,8
DA:136,2
DA:137,2
DA:138,2
DA:140,8
DA:141,2
DA:143,2
DA:144,10
DA:146,4
DA:147,2
DA:149,2
DA:151,2
DA:152,2
DA:154,8
DA:155,2
DA:156,2
DA:158,2
DA:160,2
DA:162,2
DA:165,8
DA:166,2
DA:168,2
DA:169,2
DA:171,4
DA:172,2
DA:174,2
DA:176,2
DA:177,2
DA:179,8
DA:180,2
DA:182,2
DA:184,4
DA:185,2
DA:187,2
DA:188,2
DA:190,8
DA:191,2
DA:193,2
DA:197,10
DA:199,4
DA:200,2
DA:202,2
DA:204,2
DA:205,2
DA:207,8
DA:208,2
DA:210,2
DA:213,4
DA:214,2
DA:216,2
DA:218,2
DA:219,2
DA:222,8
DA:223,2
DA:225,2
DA:227,4
DA:228,2
DA:230,2
DA:231,2
DA:233,8
DA:234,2
DA:235,6
DA:237,2
DA:238,2
DA:239,2
DA:241,8
DA:242,2
DA:244,2
DA:245,2
DA:246,2
DA:248,2
DA:250,8
DA:251,2
DA:254,4
DA:255,2
DA:257,2
DA:260,2
DA:261,2
DA:263,8
DA:264,2
DA:267,4
DA:268,2
DA:270,2
DA:273,2
DA:274,2
DA:277,8
DA:278,2
DA:279,6
DA:281,2
DA:282,2
DA:283,2
DA:285,8
DA:286,2
DA:287,2
DA:289,2
DA:290,2
DA:291,2
DA:293,8
DA:294,2
DA:296,2
DA:300,10
DA:301,2
DA:303,4
DA:304,2
DA:306,2
DA:308,2
DA:309,2
DA:310,2
DA:313,8
DA:314,2
DA:315,2
DA:317,2
DA:318,2
DA:320,2
DA:322,8
DA:323,2
DA:324,10
DA:326,4
DA:327,2
DA:329,4
DA:330,2
DA:332,4
DA:333,2
DA:335,2
DA:336,2
DA:338,8
DA:339,2
DA:341,10
DA:343,4
DA:344,2
DA:346,4
DA:347,2
DA:349,4
DA:350,2
DA:352,2
DA:353,2
DA:355,8
DA:356,2
DA:362,10
DA:366,10
DA:369,2
DA:370,2
DA:371,0
DA:375,2
DA:376,2
DA:378,2
DA:379,2
DA:381,2
DA:382,2
DA:384,8
DA:385,2
DA:387,2
DA:390,8
DA:392,2
DA:393,2
DA:395,8
DA:397,2
DA:398,2
DA:400,2
DA:402,2
DA:403,2
DA:405,8
DA:407,2
DA:408,2
DA:409,2
DA:416,14
DA:423,14
DA:429,4
DA:430,2
DA:436,4
DA:437,2
DA:439,2
DA:440,2
DA:442,8
DA:443,2
DA:444,2
DA:481,76
DA:482,2
DA:486,10
DA:488,4
DA:489,2
DA:491,4
DA:492,2
DA:494,4
DA:495,2
DA:497,10
DA:499,4
DA:500,2
DA:502,4
DA:503,2
DA:505,4
DA:506,2
DA:508,4
DA:509,2
DA:512,2
DA:513,2
DA:515,8
DA:516,2
DA:517,2
DA:554,76
DA:555,2
DA:559,10
DA:561,4
DA:562,2
DA:564,4
DA:565,2
DA:567,4
DA:568,2
DA:570,10
DA:572,4
DA:573,2
DA:575,4
DA:576,2
DA:578,4
DA:579,2
DA:581,4
DA:582,2
DA:585,2
DA:586,2
DA:588,8
DA:589,2
DA:591,2
DA:596,12
DA:601,12
DA:602,2
DA:603,2
DA:608,10
DA:610,4
DA:611,2
DA:613,4
DA:614,2
DA:616,4
DA:617,2
DA:619,4
DA:620,2
DA:622,10
DA:624,4
DA:625,2
DA:627,4
DA:628,2
DA:630,4
DA:631,2
DA:633,4
DA:634,2
DA:636,2
DA:637,2
DA:639,8
DA:640,2
DA:642,2
DA:647,12
DA:652,12
DA:653,2
DA:654,2
DA:659,10
DA:661,4
DA:662,2
DA:664,4
DA:665,2
DA:667,4
DA:668,2
DA:670,4
DA:671,2
DA:673,10
DA:675,4
DA:676,2
DA:678,4
DA:679,2
DA:681,4
DA:682,2
DA:684,4
DA:685,2
DA:687,2
DA:688,2
DA:690,8
DA:691,2
DA:693,2
DA:695,2
DA:696,2
DA:698,8
DA:699,2
DA:704,10
DA:706,6
DA:707,4
DA:710,2
DA:712,2
DA:713,2
DA:714,2
DA:717,8
DA:718,2
DA:719,8
DA:721,2
DA:722,2
DA:724,2
DA:725,2
DA:727,2
DA:728,2
DA:729,2
DA:731,2
DA:732,2
DA:734,8
DA:735,2
DA:736,2
DA:737,2
DA:739,2
DA:740,2
DA:742,2
DA:743,2
DA:744,2
DA:746,2
DA:747,2
DA:749,2
DA:750,2
DA:752,8
DA:753,2
DA:754,2
DA:755,2
DA:757,2
DA:758,2
DA:760,2
DA:761,2
DA:762,2
DA:764,2
DA:765,2
DA:767,2
DA:768,2
DA:770,8
DA:771,2
DA:772,2
DA:773,2
DA:775,2
DA:776,2
DA:778,2
DA:779,2
DA:781,2
DA:782,2
DA:784,2
DA:785,2
DA:787,8
DA:788,2
DA:789,2
DA:790,2
DA:792,2
DA:793,2
DA:795,2
DA:796,2
DA:797,2
DA:799,2
DA:800,2
DA:801,2
DA:802,2
DA:803,8
DA:804,2
DA:806,2
DA:807,2
DA:809,2
DA:810,4
DA:812,2
DA:813,2
DA:814,2
DA:816,2
DA:817,2
LF:416
LH:414
end_of_record
TN:
SF:/home/bluebird/mock_project_app_music_video_player/final/media_player/PlayerMediaApp/test/mainTest.cpp
FN:26,_ZN15MockUARTManager19checkPortConnectionERKNSt7__cxx1112basic_stringIcSt11char_traitsIcESaIcEEEj
FN:27,_ZN15MockUARTManager11getPortListB5cxx11Ev
FN:28,_ZN15MockUARTManager24gmock_getBaudRateOptionsB5cxx11Ev
FN:28,_ZN15MockUARTManager18getBaudRateOptionsB5cxx11Ev
FN:34,_ZN21MockControllerManagerC2E12ModelManager11ViewManagerSt10shared_ptrI11UARTManagerE
FN:37,_ZN21MockControllerManager9checkUartEv
FN:37,_ZN21MockControllerManager15gmock_checkUartEv
FN:38,_ZN21MockControllerManager14gmock_ScanDataEv
FN:38,_ZN21MockControllerManager8ScanDataEv
FN:39,_ZN21MockControllerManager6runAppEv
FN:39,_ZN21MockControllerManager12gmock_runAppEv
FN:43,_ZN47MainFunctionTest_CheckUartFails_ExitsEarly_TestD2Ev
FN:43,_ZN47MainFunctionTest_CheckUartFails_ExitsEarly_Test8TestBodyEv
FN:43,_ZN47MainFunctionTest_CheckUartFails_ExitsEarly_TestC2Ev
FN:43,_ZN47MainFunctionTest_CheckUartFails_ExitsEarly_TestD0Ev
FN:63,_ZN61MainFunctionTest_CheckUartSuccess_CallsScanDataAndRunApp_TestD0Ev
FN:63,_ZN61MainFunctionTest_CheckUartSuccess_CallsScanDataAndRunApp_Test8TestBodyEv
FN:63,_ZN61MainFunctionTest_CheckUartSuccess_CallsScanDataAndRunApp_TestD2Ev
FN:63,_ZN61MainFunctionTest_CheckUartSuccess_CallsScanDataAndRunApp_TestC2Ev
FN:85,_ZN68UARTManagerTest_CheckBaudRateOptions_ShouldReturnExpectedValues_TestD0Ev
FN:85,_ZN68UARTManagerTest_CheckBaudRateOptions_ShouldReturnExpectedValues_TestC2Ev
FN:85,_ZN68UARTManagerTest_CheckBaudRateOptions_ShouldReturnExpectedValues_Test8TestBodyEv
FN:85,_ZN68UARTManagerTest_CheckBaudRateOptions_ShouldReturnExpectedValues_TestD2Ev
FNDA:64,_ZN68UARTManagerTest_CheckBaudRateOptions_ShouldReturnExpectedValues_TestD0Ev
FNDA:64,_ZN21MockControllerManager6runAppEv
FNDA:64,_ZN15MockUARTManager24gmock_getBaudRateOptionsB5cxx11Ev
FNDA:128,_ZN21MockControllerManager12gmock_runAppEv
FNDA:192,_ZN15MockUARTManager11getPortListB5cxx11Ev
FNDA:64,_ZN47MainFunctionTest_CheckUartFails_ExitsEarly_Test8TestBodyEv
FNDA:64,_ZN47MainFunctionTest_CheckUartFails_ExitsEarly_TestD2Ev
FNDA:64,_ZN61MainFunctionTest_CheckUartSuccess_CallsScanDataAndRunApp_TestD0Ev
FNDA:64,_ZN61MainFunctionTest_CheckUartSuccess_CallsScanDataAndRunApp_Test8TestBodyEv
FNDA:64,_ZN47MainFunctionTest_CheckUartFails_ExitsEarly_TestC2Ev
FNDA:128,_ZN21MockControllerManager9checkUartEv
FNDA:64,_ZN68UARTManagerTest_CheckBaudRateOptions_ShouldReturnExpectedValues_TestC2Ev
FNDA:128,_ZN15MockUARTManager19checkPortConnectionERKNSt7__cxx1112basic_stringIcSt11char_traitsIcESaIcEEEj
FNDA:64,_ZN68UARTManagerTest_CheckBaudRateOptions_ShouldReturnExpectedValues_Test8TestBodyEv
FNDA:64,_ZN61MainFunctionTest_CheckUartSuccess_CallsScanDataAndRunApp_TestD2Ev
FNDA:128,_ZN21MockControllerManagerC2E12ModelManager11ViewManagerSt10shared_ptrI11UARTManagerE
FNDA:64,_ZN61MainFunctionTest_CheckUartSuccess_CallsScanDataAndRunApp_TestC2Ev
FNDA:64,_ZN68UARTManagerTest_CheckBaudRateOptions_ShouldReturnExpectedValues_TestD2Ev
FNDA:64,_ZN15MockUARTManager18getBaudRateOptionsB5cxx11Ev
FNDA:64,_ZN47MainFunctionTest_CheckUartFails_ExitsEarly_TestD0Ev
FNDA:64,_ZN21MockControllerManager8ScanDataEv
FNDA:128,_ZN21MockControllerManager14gmock_ScanDataEv
FNDA:128,_ZN21MockControllerManager15gmock_checkUartEv
FNF:23
FNH:23
DA:26,128
DA:27,192
DA:28,128
DA:34,128
DA:35,128
DA:37,256
DA:38,192
DA:39,192
DA:43,256
DA:44,64
DA:45,64
DA:46,64
DA:47,128
DA:50,64
DA:52,64
DA:53,64
DA:56,64
DA:57,64
DA:59,0
DA:61,64
DA:63,256
DA:64,64
DA:65,64
DA:66,64
DA:67,128
DA:70,64
DA:72,64
DA:73,64
DA:76,64
DA:77,64
DA:78,64
DA:79,64
DA:81,0
DA:83,64
DA:85,256
DA:86,64
DA:87,384
DA:90,64
DA:92,64
DA:94,64
DA:95,64
LF:41
LH:39
end_of_record
TN:
SF:/home/bluebird/mock_project_app_music_video_player/final/media_player/PlayerMediaApp/test/utils/UARTSetupTest.cpp
FN:12,_ZN20MockPlayerControllerC2Ev
FN:14,_ZN20MockPlayerController14togglePlaybackEv
FN:15,_ZN20MockPlayerController4stopEv
FN:16,_ZN20MockPlayerController8playNextEv
FN:17,_ZN20MockPlayerController12playPreviousEv
FN:18,_ZN20MockPlayerController9setVolumeEi
FN:24,_ZN15MockUARTManager19checkPortConnectionERKNSt7__cxx1112basic_stringIcSt11char_traitsIcESaIcEEEj
FN:24,_ZN15MockUARTManager25gmock_checkPortConnectionERKN7testing7MatcherIRKNSt7__cxx1112basic_stringIcSt11char_traitsIcESaIcEEEEERKNS1_IjEE
FN:25,_ZN15MockUARTManager17gmock_getPortListB5cxx11Ev
FN:25,_ZN15MockUARTManager11getPortListB5cxx11Ev
FN:26,_ZN15MockUARTManager18getBaudRateOptionsB5cxx11Ev
FN:30,_ZN48UARTManagerTest_CheckPortConnection_Success_TestD2Ev
FN:30,_ZN48UARTManagerTest_CheckPortConnection_Success_TestC2Ev
FN:30,_ZN48UARTManagerTest_CheckPortConnection_Success_TestD0Ev
FN:30,_ZN48UARTManagerTest_CheckPortConnection_Success_Test8TestBodyEv
FN:49,_ZN48UARTManagerTest_CheckPortConnection_Failure_TestD2Ev
FN:49,_ZN48UARTManagerTest_CheckPortConnection_Failure_TestC2Ev
FN:49,_ZN48UARTManagerTest_CheckPortConnection_Failure_TestD0Ev
FN:49,_ZN48UARTManagerTest_CheckPortConnection_Failure_Test8TestBodyEv
FN:57,_ZN53UARTManagerTest_GetPortList_ReturnsCorrectValues_TestD0Ev
FN:57,_ZN53UARTManagerTest_GetPortList_ReturnsCorrectValues_Test8TestBodyEv
FN:57,_ZN53UARTManagerTest_GetPortList_ReturnsCorrectValues_TestD2Ev
FN:57,_ZN53UARTManagerTest_GetPortList_ReturnsCorrectValues_TestC2Ev
FN:76,_ZN60UARTManagerTest_GetBaudRateOptions_ReturnsCorrectValues_Test8TestBodyEv
FN:76,_ZN60UARTManagerTest_GetBaudRateOptions_ReturnsCorrectValues_TestD0Ev
FN:76,_ZN60UARTManagerTest_GetBaudRateOptions_ReturnsCorrectValues_TestD2Ev
FN:76,_ZN60UARTManagerTest_GetBaudRateOptions_ReturnsCorrectValues_TestC2Ev
FN:89,_ZN40UARTManagerTest_StopUART_SafeToCall_TestD0Ev
FN:89,_ZN40UARTManagerTest_StopUART_SafeToCall_Test8TestBodyEv
FN:89,_ZN40UARTManagerTest_StopUART_SafeToCall_TestC2Ev
FN:89,_ZN40UARTManagerTest_StopUART_SafeToCall_TestD2Ev
FN:96,_ZN54UARTManagerTest_RunMediaUart_CallsAsyncHandleUart_Test8TestBodyEv
FN:96,_ZN54UARTManagerTest_RunMediaUart_CallsAsyncHandleUart_TestD0Ev
FN:96,_ZN54UARTManagerTest_RunMediaUart_CallsAsyncHandleUart_TestD2Ev
FN:96,_ZN54UARTManagerTest_RunMediaUart_CallsAsyncHandleUart_TestC2Ev
FNDA:148,_ZN48UARTManagerTest_CheckPortConnection_Success_Test8TestBodyEv
FNDA:0,_ZN20MockPlayerController8playNextEv
FNDA:0,_ZN20MockPlayerController14togglePlaybackEv
FNDA:148,_ZN20MockPlayerControllerC2Ev
FNDA:148,_ZN60UARTManagerTest_GetBaudRateOptions_ReturnsCorrectValues_TestC2Ev
FNDA:0,_ZN20MockPlayerController4stopEv
FNDA:148,_ZN48UARTManagerTest_CheckPortConnection_Success_TestD0Ev
FNDA:148,_ZN60UARTManagerTest_GetBaudRateOptions_ReturnsCorrectValues_TestD2Ev
FNDA:148,_ZN40UARTManagerTest_StopUART_SafeToCall_TestD2Ev
FNDA:148,_ZN48UARTManagerTest_CheckPortConnection_Success_TestC2Ev
FNDA:0,_ZN15MockUARTManager11getPortListB5cxx11Ev
FNDA:148,_ZN53UARTManagerTest_GetPortList_ReturnsCorrectValues_TestC2Ev
FNDA:0,_ZN20MockPlayerController9setVolumeEi
FNDA:148,_ZN54UARTManagerTest_RunMediaUart_CallsAsyncHandleUart_TestC2Ev
FNDA:148,_ZN54UARTManagerTest_RunMediaUart_CallsAsyncHandleUart_TestD2Ev
FNDA:148,_ZN48UARTManagerTest_CheckPortConnection_Failure_Test8TestBodyEv
FNDA:296,_ZN15MockUARTManager25gmock_checkPortConnectionERKN7testing7MatcherIRKNSt7__cxx1112basic_stringIcSt11char_traitsIcESaIcEEEEERKNS1_IjEE
FNDA:148,_ZN53UARTManagerTest_GetPortList_ReturnsCorrectValues_TestD2Ev
FNDA:148,_ZN53UARTManagerTest_GetPortList_ReturnsCorrectValues_Test8TestBodyEv
FNDA:148,_ZN48UARTManagerTest_CheckPortConnection_Failure_TestD0Ev
FNDA:148,_ZN48UARTManagerTest_CheckPortConnection_Failure_TestC2Ev
FNDA:0,_ZN15MockUARTManager18getBaudRateOptionsB5cxx11Ev
FNDA:0,_ZN20MockPlayerController12playPreviousEv
FNDA:148,_ZN53UARTManagerTest_GetPortList_ReturnsCorrectValues_TestD0Ev
FNDA:148,_ZN48UARTManagerTest_CheckPortConnection_Failure_TestD2Ev
FNDA:148,_ZN54UARTManagerTest_RunMediaUart_CallsAsyncHandleUart_TestD0Ev
FNDA:148,_ZN40UARTManagerTest_StopUART_SafeToCall_TestD0Ev
FNDA:148,_ZN54UARTManagerTest_RunMediaUart_CallsAsyncHandleUart_Test8TestBodyEv
FNDA:296,_ZN15MockUARTManager17gmock_getPortListB5cxx11Ev
FNDA:148,_ZN60UARTManagerTest_GetBaudRateOptions_ReturnsCorrectValues_TestD0Ev
FNDA:0,_ZN15MockUARTManager19checkPortConnectionERKNSt7__cxx1112basic_stringIcSt11char_traitsIcESaIcEEEj
FNDA:148,_ZN40UARTManagerTest_StopUART_SafeToCall_TestC2Ev
FNDA:148,_ZN48UARTManagerTest_CheckPortConnection_Success_TestD2Ev
FNDA:148,_ZN40UARTManagerTest_StopUART_SafeToCall_Test8TestBodyEv
FNDA:148,_ZN60UARTManagerTest_GetBaudRateOptions_ReturnsCorrectValues_Test8TestBodyEv
FNF:35
FNH:27
DA:12,148
DA:14,0
DA:15,0
DA:16,0
DA:17,0
DA:18,0
DA:24,296
DA:25,296
DA:26,0
DA:30,592
DA:31,148
DA:33,740
DA:35,148
DA:37,148
DA:39,148
DA:40,148
DA:42,148
DA:44,0
DA:46,148
DA:49,592
DA:50,148
DA:51,148
DA:53,148
DA:54,148
DA:57,592
DA:58,148
DA:60,148
DA:61,444
DA:62,296
DA:65,148
DA:66,148
DA:67,148
DA:69,296
DA:70,148
DA:71,148
DA:72,148
DA:76,592
DA:77,148
DA:78,148
DA:83,2220
DA:85,148
DA:86,148
DA:89,592
DA:90,148
DA:92,148
DA:93,148
DA:96,592
DA:97,148
DA:98,148
DA:99,148
DA:101,148
DA:102,148
DA:103,148
LF:53
LH:46
end_of_record
